EXPORTS 
	?$TSS0@?1??curl_easy_init_mutex_@CurlHolder@cpr@@CAAEAVmutex@std@@XZ@4HA 	 DATA
	??_R0?AV?$StringHolder@VUrl@cpr@@@cpr@@@8 	 DATA
	??_R0?AV?$_Associated_state@VResponse@cpr@@@std@@@8 	 DATA
	??_R0?AV?$_Func_base@VResponse@cpr@@$$V@std@@@8 	 DATA
	??_R0?AV?$_Func_base@VResponse@cpr@@AEAVSession@2@W4CURLcode@@@std@@@8 	 DATA
	??_R0?AV?$_Func_base@X$$V@std@@@8 	 DATA
	??_R0?AV?$_Iosb@H@std@@@8 	 DATA
	??_R0?AV?$_Packaged_state@$$A6A?AVResponse@cpr@@XZ@std@@@8 	 DATA
	??_R0?AV?$_Ref_count@UCurlHolder@cpr@@@std@@@8 	 DATA
	??_R0?AV?$_Ref_count@Vthread@std@@@std@@@8 	 DATA
	??_R0?AV?$_Ref_count_obj2@V?$packaged_task@$$A6A?AVResponse@cpr@@XZ@std@@@std@@@8 	 DATA
	??_R0?AV?$basic_ios@DU?$char_traits@D@std@@@std@@@8 	 DATA
	??_R0?AV?$basic_iostream@DU?$char_traits@D@std@@@std@@@8 	 DATA
	??_R0?AV?$basic_istream@DU?$char_traits@D@std@@@std@@@8 	 DATA
	??_R0?AV?$basic_istringstream@DU?$char_traits@D@std@@V?$allocator@D@2@@std@@@8 	 DATA
	??_R0?AV?$basic_ostream@DU?$char_traits@D@std@@@std@@@8 	 DATA
	??_R0?AV?$basic_streambuf@DU?$char_traits@D@std@@@std@@@8 	 DATA
	??_R0?AV?$basic_stringbuf@DU?$char_traits@D@std@@V?$allocator@D@2@@std@@@8 	 DATA
	??_R0?AV?$basic_stringstream@DU?$char_traits@D@std@@V?$allocator@D@2@@std@@@8 	 DATA
	??_R0?AVBearer@cpr@@@8 	 DATA
	??_R0?AVEncodedAuthentication@cpr@@@8 	 DATA
	??_R0?AVGlobalThreadPool@cpr@@@8 	 DATA
	??_R0?AVThreadPool@cpr@@@8 	 DATA
	??_R0?AVUrl@cpr@@@8 	 DATA
	??_R0?AV_Future_error_category2@std@@@8 	 DATA
	??_R0?AV_Ref_count_base@std@@@8 	 DATA
	??_R0?AVbad_alloc@std@@@8 	 DATA
	??_R0?AVbad_array_new_length@std@@@8 	 DATA
	??_R0?AVbad_cast@std@@@8 	 DATA
	??_R0?AVbad_weak_ptr@std@@@8 	 DATA
	??_R0?AVerror_category@std@@@8 	 DATA
	??_R0?AVexception@std@@@8 	 DATA
	??_R0?AVfuture_error@std@@@8 	 DATA
	??_R0?AVinvalid_argument@std@@@8 	 DATA
	??_R0?AVios_base@std@@@8 	 DATA
	??_R0?AVlogic_error@std@@@8 	 DATA
	??_R0?AVoverflow_error@std@@@8 	 DATA
	??_R0?AVruntime_error@std@@@8 	 DATA
	??_R0?AVunderflow_error@std@@@8 	 DATA
	?_Psave@?$_Facetptr@V?$time_put@DV?$ostreambuf_iterator@DU?$char_traits@D@std@@@std@@@std@@@std@@2PEBVfacet@locale@2@EB 	 DATA
	?_Static@?1???$_Immortalize_memcpy_image@V_Future_error_category2@std@@@std@@YAAEBV_Future_error_category2@1@XZ@4U?$_Constexpr_immortalize_impl@V_Future_error_category2@std@@@1@A 	 DATA
	?curl_easy_init_mutex_@?1??0CurlHolder@cpr@@CAAEAVmutex@std@@XZ@4V34@A 	 DATA
	?s_mutex@GlobalThreadPool@cpr@@0Vmutex@std@@A 	 DATA
	?s_pInstance@GlobalThreadPool@cpr@@0PEAV12@EA 	 DATA
	??$?6DU?$char_traits@D@std@@D@std@@YAAEAV?$basic_ostream@DU?$char_traits@D@std@@@0@AEAV10@AEBU?$_Timeobj@DPEBUtm@@@0@@Z
	??$?6DU?$char_traits@D@std@@V?$allocator@D@1@@std@@YAAEAV?$basic_ostream@DU?$char_traits@D@std@@@0@AEAV10@AEBV?$basic_string@DU?$char_traits@D@std@@V?$allocator@D@2@@0@@Z
	??$?6U?$char_traits@D@std@@@std@@YAAEAV?$basic_ostream@DU?$char_traits@D@std@@@0@AEAV10@PEBD@Z
	??$?HDU?$char_traits@D@std@@V?$allocator@D@1@@std@@YA?AV?$basic_string@DU?$char_traits@D@std@@V?$allocator@D@2@@0@$$QEAV10@QEBD@Z
	??$?HDU?$char_traits@D@std@@V?$allocator@D@1@@std@@YA?AV?$basic_string@DU?$char_traits@D@std@@V?$allocator@D@2@@0@QEBD$$QEAV10@@Z
	??$?HDU?$char_traits@D@std@@V?$allocator@D@1@@std@@YA?AV?$basic_string@DU?$char_traits@D@std@@V?$allocator@D@2@@0@QEBDAEBV10@@Z
	??$?MDU?$char_traits@D@std@@V?$allocator@D@1@@std@@YA_NAEBV?$basic_string@DU?$char_traits@D@std@@V?$allocator@D@2@@0@0@Z
	??$PrepareDownloadSessions@VWriteCallback@cpr@@@MultiPerform@cpr@@AEAAX_KVWriteCallback@1@@Z
	??$_Allocate_manually_vector_aligned@U_Default_allocate_traits@std@@@std@@YAPEAX_K@Z
	??$_Assign_cast@AEAV?$basic_string@DU?$char_traits@D@std@@V?$allocator@D@2@@std@@V?$_List_unchecked_const_iterator@V?$_List_val@U?$_List_simple_types@V?$basic_string@DU?$char_traits@D@std@@V?$allocator@D@2@@std@@@std@@@std@@U_Iterator_base0@2@@2@@?$list@V?$basic_string@DU?$char_traits@D@std@@V?$allocator@D@2@@std@@V?$allocator@V?$basic_string@DU?$char_traits@D@std@@V?$allocator@D@2@@std@@@2@@std@@AEAAXV?$_List_unchecked_const_iterator@V?$_List_val@U?$_List_simple_types@V?$basic_string@DU?$char_traits@D@std@@V?$allocator@D@2@@std@@@std@@@std@@U_Iterator_base0@2@@1@V21@@Z
	??$_Assign_range@PEAUFile@cpr@@@?$vector@UFile@cpr@@V?$allocator@UFile@cpr@@@std@@@std@@AEAAXPEAUFile@cpr@@0Uforward_iterator_tag@1@@Z
	??$_Assign_range@PEAUParameter@cpr@@@?$vector@UParameter@cpr@@V?$allocator@UParameter@cpr@@@std@@@std@@AEAAXPEAUParameter@cpr@@0Uforward_iterator_tag@1@@Z
	??$_Atomic_address_as@DU?$_Atomic_padded@_N@std@@@std@@YAPEDDAEBU?$_Atomic_padded@_N@0@@Z
	??$_Atomic_address_as@HU?$_Atomic_padded@W4Status@ThreadPool@cpr@@@std@@@std@@YAPEDHAEBU?$_Atomic_padded@W4Status@ThreadPool@cpr@@@0@@Z
	??$_Atomic_address_as@JU?$_Atomic_padded@W4Status@ThreadPool@cpr@@@std@@@std@@YAPECJAEAU?$_Atomic_padded@W4Status@ThreadPool@cpr@@@0@@Z
	??$_Atomic_address_as@_JU?$_Atomic_padded@_K@std@@@std@@YAPEC_JAEAU?$_Atomic_padded@_K@0@@Z
	??$_Atomic_address_as@_JU?$_Atomic_padded@_K@std@@@std@@YAPED_JAEBU?$_Atomic_padded@_K@0@@Z
	??$_Atomic_reinterpret_as@JW4Status@ThreadPool@cpr@@@std@@YAJAEBW4Status@ThreadPool@cpr@@@Z
	??$_Atomic_reinterpret_as@_J_K@std@@YA_JAEB_K@Z
	??$_Copy@U_Copy_tag@?$_Tree@V?$_Tmap_traits@V?$basic_string@DU?$char_traits@D@std@@V?$allocator@D@2@@std@@VEncodedAuthentication@cpr@@U?$less@V?$basic_string@DU?$char_traits@D@std@@V?$allocator@D@2@@std@@@2@V?$allocator@U?$pair@$$CBV?$basic_string@DU?$char_traits@D@std@@V?$allocator@D@2@@std@@VEncodedAuthentication@cpr@@@std@@@2@$0A@@std@@@std@@@?$_Tree@V?$_Tmap_traits@V?$basic_string@DU?$char_traits@D@std@@V?$allocator@D@2@@std@@VEncodedAuthentication@cpr@@U?$less@V?$basic_string@DU?$char_traits@D@std@@V?$allocator@D@2@@std@@@2@V?$allocator@U?$pair@$$CBV?$basic_string@DU?$char_traits@D@std@@V?$allocator@D@2@@std@@VEncodedAuthentication@cpr@@@std@@@2@$0A@@std@@@std@@IEAAXAEBV01@U_Copy_tag@01@@Z
	??$_Copy_memmove@PEAPEAV?$function@$$A6AXXZ@std@@PEAPEAV12@@std@@YAPEAPEAV?$function@$$A6AXXZ@0@PEAPEAV10@00@Z
	??$_Copy_memmove@PEAPEAV?$shared_ptr@VInterceptor@cpr@@@std@@PEAPEAV12@@std@@YAPEAPEAV?$shared_ptr@VInterceptor@cpr@@@0@PEAPEAV10@00@Z
	??$_Copy_memmove@PEAPEAV?$shared_ptr@VInterceptorMulti@cpr@@@std@@PEAPEAV12@@std@@YAPEAPEAV?$shared_ptr@VInterceptorMulti@cpr@@@0@PEAPEAV10@00@Z
	??$_Copy_nodes@U_Copy_tag@?$_Tree@V?$_Tmap_traits@V?$basic_string@DU?$char_traits@D@std@@V?$allocator@D@2@@std@@V12@U?$less@V?$basic_string@DU?$char_traits@D@std@@V?$allocator@D@2@@std@@@2@V?$allocator@U?$pair@$$CBV?$basic_string@DU?$char_traits@D@std@@V?$allocator@D@2@@std@@V12@@std@@@2@$0A@@std@@@std@@@?$_Tree@V?$_Tmap_traits@V?$basic_string@DU?$char_traits@D@std@@V?$allocator@D@2@@std@@V12@U?$less@V?$basic_string@DU?$char_traits@D@std@@V?$allocator@D@2@@std@@@2@V?$allocator@U?$pair@$$CBV?$basic_string@DU?$char_traits@D@std@@V?$allocator@D@2@@std@@V12@@std@@@2@$0A@@std@@@std@@IEAAPEAU?$_Tree_node@U?$pair@$$CBV?$basic_string@DU?$char_traits@D@std@@V?$allocator@D@2@@std@@V12@@std@@PEAX@1@PEAU21@0U_Copy_tag@01@@Z
	??$_Copy_nodes@U_Copy_tag@?$_Tree@V?$_Tmap_traits@V?$basic_string@DU?$char_traits@D@std@@V?$allocator@D@2@@std@@V12@UCaseInsensitiveCompare@cpr@@V?$allocator@U?$pair@$$CBV?$basic_string@DU?$char_traits@D@std@@V?$allocator@D@2@@std@@V12@@std@@@2@$0A@@std@@@std@@@?$_Tree@V?$_Tmap_traits@V?$basic_string@DU?$char_traits@D@std@@V?$allocator@D@2@@std@@V12@UCaseInsensitiveCompare@cpr@@V?$allocator@U?$pair@$$CBV?$basic_string@DU?$char_traits@D@std@@V?$allocator@D@2@@std@@V12@@std@@@2@$0A@@std@@@std@@IEAAPEAU?$_Tree_node@U?$pair@$$CBV?$basic_string@DU?$char_traits@D@std@@V?$allocator@D@2@@std@@V12@@std@@PEAX@1@PEAU21@0U_Copy_tag@01@@Z
	??$_Copy_nodes@U_Copy_tag@?$_Tree@V?$_Tmap_traits@V?$basic_string@DU?$char_traits@D@std@@V?$allocator@D@2@@std@@VEncodedAuthentication@cpr@@U?$less@V?$basic_string@DU?$char_traits@D@std@@V?$allocator@D@2@@std@@@2@V?$allocator@U?$pair@$$CBV?$basic_string@DU?$char_traits@D@std@@V?$allocator@D@2@@std@@VEncodedAuthentication@cpr@@@std@@@2@$0A@@std@@@std@@@?$_Tree@V?$_Tmap_traits@V?$basic_string@DU?$char_traits@D@std@@V?$allocator@D@2@@std@@VEncodedAuthentication@cpr@@U?$less@V?$basic_string@DU?$char_traits@D@std@@V?$allocator@D@2@@std@@@2@V?$allocator@U?$pair@$$CBV?$basic_string@DU?$char_traits@D@std@@V?$allocator@D@2@@std@@VEncodedAuthentication@cpr@@@std@@@2@$0A@@std@@@std@@IEAAPEAU?$_Tree_node@U?$pair@$$CBV?$basic_string@DU?$char_traits@D@std@@V?$allocator@D@2@@std@@VEncodedAuthentication@cpr@@@std@@PEAX@1@PEAU21@0U_Copy_tag@01@@Z
	??$_Copy_nodes@U_Copy_tag@?$_Tree@V?$_Tset_traits@GU?$less@G@std@@V?$allocator@G@2@$0A@@std@@@std@@@?$_Tree@V?$_Tset_traits@GU?$less@G@std@@V?$allocator@G@2@$0A@@std@@@std@@IEAAPEAU?$_Tree_node@GPEAX@1@PEAU21@0U_Copy_tag@01@@Z
	??$_Copy_unchecked@PEAUFile@cpr@@PEAU12@@std@@YAPEAUFile@cpr@@PEAU12@00@Z
	??$_Copy_unchecked@PEAUParameter@cpr@@PEAU12@@std@@YAPEAUParameter@cpr@@PEAU12@00@Z
	??$_Destroy_range@V?$allocator@U?$pair@V?$shared_ptr@VSession@cpr@@@std@@W4HttpMethod@MultiPerform@cpr@@@std@@@std@@@std@@YAXPEAU?$pair@V?$shared_ptr@VSession@cpr@@@std@@W4HttpMethod@MultiPerform@cpr@@@0@QEAU10@AEAV?$allocator@U?$pair@V?$shared_ptr@VSession@cpr@@@std@@W4HttpMethod@MultiPerform@cpr@@@std@@@0@@Z
	??$_Destroy_range@V?$allocator@UFile@cpr@@@std@@@std@@YAXPEAUFile@cpr@@QEAU12@AEAV?$allocator@UFile@cpr@@@0@@Z
	??$_Destroy_range@V?$allocator@UParameter@cpr@@@std@@@std@@YAXPEAUParameter@cpr@@QEAU12@AEAV?$allocator@UParameter@cpr@@@0@@Z
	??$_Destroy_range@V?$allocator@UPart@cpr@@@std@@@std@@YAXPEAUPart@cpr@@QEAU12@AEAV?$allocator@UPart@cpr@@@0@@Z
	??$_Destroy_range@V?$allocator@V?$basic_string@DU?$char_traits@D@std@@V?$allocator@D@2@@std@@@std@@@std@@YAXPEAV?$basic_string@DU?$char_traits@D@std@@V?$allocator@D@2@@0@QEAV10@AEAV?$allocator@V?$basic_string@DU?$char_traits@D@std@@V?$allocator@D@2@@std@@@0@@Z
	??$_Emplace_reallocate@AEAV?$shared_ptr@VSession@cpr@@@std@@AEAW4HttpMethod@MultiPerform@cpr@@@?$vector@U?$pair@V?$shared_ptr@VSession@cpr@@@std@@W4HttpMethod@MultiPerform@cpr@@@std@@V?$allocator@U?$pair@V?$shared_ptr@VSession@cpr@@@std@@W4HttpMethod@MultiPerform@cpr@@@std@@@2@@std@@QEAAPEAU?$pair@V?$shared_ptr@VSession@cpr@@@std@@W4HttpMethod@MultiPerform@cpr@@@1@QEAU21@AEAV?$shared_ptr@VSession@cpr@@@1@AEAW4HttpMethod@MultiPerform@cpr@@@Z
	??$_Emplace_reallocate@AEAVCertInfo@cpr@@@?$vector@VCertInfo@cpr@@V?$allocator@VCertInfo@cpr@@@std@@@std@@QEAAPEAVCertInfo@cpr@@QEAV23@AEAV23@@Z
	??$_Emplace_reallocate@AEAY00$$CBD@?$vector@V?$basic_string@DU?$char_traits@D@std@@V?$allocator@D@2@@std@@V?$allocator@V?$basic_string@DU?$char_traits@D@std@@V?$allocator@D@2@@std@@@2@@std@@QEAAPEAV?$basic_string@DU?$char_traits@D@std@@V?$allocator@D@2@@1@QEAV21@AEAY00$$CBD@Z
	??$_Emplace_reallocate@AEBUFile@cpr@@@?$vector@UFile@cpr@@V?$allocator@UFile@cpr@@@std@@@std@@QEAAPEAUFile@cpr@@QEAU23@AEBU23@@Z
	??$_Emplace_reallocate@AEBUPair@cpr@@@?$vector@UPair@cpr@@V?$allocator@UPair@cpr@@@std@@@std@@QEAAPEAUPair@cpr@@QEAU23@AEBU23@@Z
	??$_Emplace_reallocate@AEBUParameter@cpr@@@?$vector@UParameter@cpr@@V?$allocator@UParameter@cpr@@@std@@@std@@QEAAPEAUParameter@cpr@@QEAU23@AEBU23@@Z
	??$_Emplace_reallocate@AEBV?$basic_string@DU?$char_traits@D@std@@V?$allocator@D@2@@std@@@?$vector@UFile@cpr@@V?$allocator@UFile@cpr@@@std@@@std@@QEAAPEAUFile@cpr@@QEAU23@AEBV?$basic_string@DU?$char_traits@D@std@@V?$allocator@D@2@@1@@Z
	??$_Emplace_reallocate@AEBV?$basic_string@DU?$char_traits@D@std@@V?$allocator@D@2@@std@@@?$vector@V?$basic_string@DU?$char_traits@D@std@@V?$allocator@D@2@@std@@V?$allocator@V?$basic_string@DU?$char_traits@D@std@@V?$allocator@D@2@@std@@@2@@std@@QEAAPEAV?$basic_string@DU?$char_traits@D@std@@V?$allocator@D@2@@1@QEAV21@AEBV21@@Z
	??$_Emplace_reallocate@AEBVCookie@cpr@@@?$vector@VCookie@cpr@@V?$allocator@VCookie@cpr@@@std@@@std@@QEAAPEAVCookie@cpr@@QEAV23@AEBV23@@Z
	??$_Emplace_reallocate@AEBVResponse@cpr@@@?$vector@VResponse@cpr@@V?$allocator@VResponse@cpr@@@std@@@std@@QEAAPEAVResponse@cpr@@QEAV23@AEBV23@@Z
	??$_Emplace_reallocate@UPair@cpr@@@?$vector@UPair@cpr@@V?$allocator@UPair@cpr@@@std@@@std@@QEAAPEAUPair@cpr@@QEAU23@$$QEAU23@@Z
	??$_Emplace_reallocate@UParameter@cpr@@@?$vector@UParameter@cpr@@V?$allocator@UParameter@cpr@@@std@@@std@@QEAAPEAUParameter@cpr@@QEAU23@$$QEAU23@@Z
	??$_Emplace_reallocate@VResponse@cpr@@@?$vector@VResponse@cpr@@V?$allocator@VResponse@cpr@@@std@@@std@@QEAAPEAVResponse@cpr@@QEAV23@$$QEAV23@@Z
	??$_Erase_head@V?$allocator@U?$_Tree_node@GPEAX@std@@@std@@@?$_Tree_val@U?$_Tree_simple_types@G@std@@@std@@QEAAXAEAV?$allocator@U?$_Tree_node@GPEAX@std@@@1@@Z
	??$_Erase_tree@V?$allocator@U?$_Tree_node@GPEAX@std@@@std@@@?$_Tree_val@U?$_Tree_simple_types@G@std@@@std@@QEAAXAEAV?$allocator@U?$_Tree_node@GPEAX@std@@@1@PEAU?$_Tree_node@GPEAX@1@@Z
	??$_Erase_tree@V?$allocator@U?$_Tree_node@U?$pair@$$CBV?$basic_string@DU?$char_traits@D@std@@V?$allocator@D@2@@std@@V12@@std@@PEAX@std@@@std@@@?$_Tree_val@U?$_Tree_simple_types@U?$pair@$$CBV?$basic_string@DU?$char_traits@D@std@@V?$allocator@D@2@@std@@V12@@std@@@std@@@std@@QEAAXAEAV?$allocator@U?$_Tree_node@U?$pair@$$CBV?$basic_string@DU?$char_traits@D@std@@V?$allocator@D@2@@std@@V12@@std@@PEAX@std@@@1@PEAU?$_Tree_node@U?$pair@$$CBV?$basic_string@DU?$char_traits@D@std@@V?$allocator@D@2@@std@@V12@@std@@PEAX@1@@Z
	??$_Erase_tree@V?$allocator@U?$_Tree_node@U?$pair@$$CBV?$basic_string@DU?$char_traits@D@std@@V?$allocator@D@2@@std@@VEncodedAuthentication@cpr@@@std@@PEAX@std@@@std@@@?$_Tree_val@U?$_Tree_simple_types@U?$pair@$$CBV?$basic_string@DU?$char_traits@D@std@@V?$allocator@D@2@@std@@VEncodedAuthentication@cpr@@@std@@@std@@@std@@QEAAXAEAV?$allocator@U?$_Tree_node@U?$pair@$$CBV?$basic_string@DU?$char_traits@D@std@@V?$allocator@D@2@@std@@VEncodedAuthentication@cpr@@@std@@PEAX@std@@@1@PEAU?$_Tree_node@U?$pair@$$CBV?$basic_string@DU?$char_traits@D@std@@V?$allocator@D@2@@std@@VEncodedAuthentication@cpr@@@std@@PEAX@1@@Z
	??$_Erase_tree@V?$allocator@U?$_Tree_node@U?$pair@$$CBW4AcceptEncodingMethods@cpr@@V?$basic_string@DU?$char_traits@D@std@@V?$allocator@D@2@@std@@@std@@PEAX@std@@@std@@@?$_Tree_val@U?$_Tree_simple_types@U?$pair@$$CBW4AcceptEncodingMethods@cpr@@V?$basic_string@DU?$char_traits@D@std@@V?$allocator@D@2@@std@@@std@@@std@@@std@@QEAAXAEAV?$allocator@U?$_Tree_node@U?$pair@$$CBW4AcceptEncodingMethods@cpr@@V?$basic_string@DU?$char_traits@D@std@@V?$allocator@D@2@@std@@@std@@PEAX@std@@@1@PEAU?$_Tree_node@U?$pair@$$CBW4AcceptEncodingMethods@cpr@@V?$basic_string@DU?$char_traits@D@std@@V?$allocator@D@2@@std@@@std@@PEAX@1@@Z
	??$_Erase_tree_and_orphan@V?$allocator@U?$_Tree_node@GPEAX@std@@@std@@@?$_Tree_val@U?$_Tree_simple_types@G@std@@@std@@QEAAXAEAV?$allocator@U?$_Tree_node@GPEAX@std@@@1@PEAU?$_Tree_node@GPEAX@1@@Z
	??$_Erase_tree_and_orphan@V?$allocator@U?$_Tree_node@U?$pair@$$CBV?$basic_string@DU?$char_traits@D@std@@V?$allocator@D@2@@std@@V12@@std@@PEAX@std@@@std@@@?$_Tree_val@U?$_Tree_simple_types@U?$pair@$$CBV?$basic_string@DU?$char_traits@D@std@@V?$allocator@D@2@@std@@V12@@std@@@std@@@std@@QEAAXAEAV?$allocator@U?$_Tree_node@U?$pair@$$CBV?$basic_string@DU?$char_traits@D@std@@V?$allocator@D@2@@std@@V12@@std@@PEAX@std@@@1@PEAU?$_Tree_node@U?$pair@$$CBV?$basic_string@DU?$char_traits@D@std@@V?$allocator@D@2@@std@@V12@@std@@PEAX@1@@Z
	??$_Erase_tree_and_orphan@V?$allocator@U?$_Tree_node@U?$pair@$$CBV?$basic_string@DU?$char_traits@D@std@@V?$allocator@D@2@@std@@VEncodedAuthentication@cpr@@@std@@PEAX@std@@@std@@@?$_Tree_val@U?$_Tree_simple_types@U?$pair@$$CBV?$basic_string@DU?$char_traits@D@std@@V?$allocator@D@2@@std@@VEncodedAuthentication@cpr@@@std@@@std@@@std@@QEAAXAEAV?$allocator@U?$_Tree_node@U?$pair@$$CBV?$basic_string@DU?$char_traits@D@std@@V?$allocator@D@2@@std@@VEncodedAuthentication@cpr@@@std@@PEAX@std@@@1@PEAU?$_Tree_node@U?$pair@$$CBV?$basic_string@DU?$char_traits@D@std@@V?$allocator@D@2@@std@@VEncodedAuthentication@cpr@@@std@@PEAX@1@@Z
	??$_Find_hint@V?$basic_string@DU?$char_traits@D@std@@V?$allocator@D@2@@std@@@?$_Tree@V?$_Tmap_traits@V?$basic_string@DU?$char_traits@D@std@@V?$allocator@D@2@@std@@V12@U?$less@V?$basic_string@DU?$char_traits@D@std@@V?$allocator@D@2@@std@@@2@V?$allocator@U?$pair@$$CBV?$basic_string@DU?$char_traits@D@std@@V?$allocator@D@2@@std@@V12@@std@@@2@$0A@@std@@@std@@IEBA?AU?$_Tree_find_hint_result@PEAU?$_Tree_node@U?$pair@$$CBV?$basic_string@DU?$char_traits@D@std@@V?$allocator@D@2@@std@@V12@@std@@PEAX@std@@@1@QEAU?$_Tree_node@U?$pair@$$CBV?$basic_string@DU?$char_traits@D@std@@V?$allocator@D@2@@std@@V12@@std@@PEAX@1@AEBV?$basic_string@DU?$char_traits@D@std@@V?$allocator@D@2@@1@@Z
	??$_Find_hint@W4AcceptEncodingMethods@cpr@@@?$_Tree@V?$_Tmap_traits@W4AcceptEncodingMethods@cpr@@V?$basic_string@DU?$char_traits@D@std@@V?$allocator@D@2@@std@@U?$less@W4AcceptEncodingMethods@cpr@@@4@V?$allocator@U?$pair@$$CBW4AcceptEncodingMethods@cpr@@V?$basic_string@DU?$char_traits@D@std@@V?$allocator@D@2@@std@@@std@@@4@$0A@@std@@@std@@IEBA?AU?$_Tree_find_hint_result@PEAU?$_Tree_node@U?$pair@$$CBW4AcceptEncodingMethods@cpr@@V?$basic_string@DU?$char_traits@D@std@@V?$allocator@D@2@@std@@@std@@PEAX@std@@@1@QEAU?$_Tree_node@U?$pair@$$CBW4AcceptEncodingMethods@cpr@@V?$basic_string@DU?$char_traits@D@std@@V?$allocator@D@2@@std@@@std@@PEAX@1@AEBW4AcceptEncodingMethods@cpr@@@Z
	??$_Find_last@V?$basic_string@DU?$char_traits@D@std@@V?$allocator@D@2@@std@@@?$_Hash@V?$_Uset_traits@V?$basic_string@DU?$char_traits@D@std@@V?$allocator@D@2@@std@@V?$_Uhash_compare@V?$basic_string@DU?$char_traits@D@std@@V?$allocator@D@2@@std@@U?$hash@V?$basic_string@DU?$char_traits@D@std@@V?$allocator@D@2@@std@@@2@U?$equal_to@V?$basic_string@DU?$char_traits@D@std@@V?$allocator@D@2@@std@@@2@@2@V?$allocator@V?$basic_string@DU?$char_traits@D@std@@V?$allocator@D@2@@std@@@2@$0A@@std@@@std@@IEBA?AU?$_Hash_find_last_result@PEAU?$_List_node@V?$basic_string@DU?$char_traits@D@std@@V?$allocator@D@2@@std@@PEAX@std@@@1@AEBV?$basic_string@DU?$char_traits@D@std@@V?$allocator@D@2@@1@_K@Z
	??$_Find_lower_bound@V?$basic_string@DU?$char_traits@D@std@@V?$allocator@D@2@@std@@@?$_Tree@V?$_Tmap_traits@V?$basic_string@DU?$char_traits@D@std@@V?$allocator@D@2@@std@@V12@U?$less@V?$basic_string@DU?$char_traits@D@std@@V?$allocator@D@2@@std@@@2@V?$allocator@U?$pair@$$CBV?$basic_string@DU?$char_traits@D@std@@V?$allocator@D@2@@std@@V12@@std@@@2@$0A@@std@@@std@@IEBA?AU?$_Tree_find_result@PEAU?$_Tree_node@U?$pair@$$CBV?$basic_string@DU?$char_traits@D@std@@V?$allocator@D@2@@std@@V12@@std@@PEAX@std@@@1@AEBV?$basic_string@DU?$char_traits@D@std@@V?$allocator@D@2@@1@@Z
	??$_Find_lower_bound@V?$basic_string@DU?$char_traits@D@std@@V?$allocator@D@2@@std@@@?$_Tree@V?$_Tmap_traits@V?$basic_string@DU?$char_traits@D@std@@V?$allocator@D@2@@std@@VEncodedAuthentication@cpr@@U?$less@V?$basic_string@DU?$char_traits@D@std@@V?$allocator@D@2@@std@@@2@V?$allocator@U?$pair@$$CBV?$basic_string@DU?$char_traits@D@std@@V?$allocator@D@2@@std@@VEncodedAuthentication@cpr@@@std@@@2@$0A@@std@@@std@@IEBA?AU?$_Tree_find_result@PEAU?$_Tree_node@U?$pair@$$CBV?$basic_string@DU?$char_traits@D@std@@V?$allocator@D@2@@std@@VEncodedAuthentication@cpr@@@std@@PEAX@std@@@1@AEBV?$basic_string@DU?$char_traits@D@std@@V?$allocator@D@2@@1@@Z
	??$_Free_non_head@V?$allocator@U?$_List_node@UThreadData@ThreadPool@cpr@@PEAX@std@@@std@@@?$_List_node@UThreadData@ThreadPool@cpr@@PEAX@std@@SAXAEAV?$allocator@U?$_List_node@UThreadData@ThreadPool@cpr@@PEAX@std@@@1@PEAU01@@Z
	??$_Free_non_head@V?$allocator@U?$_List_node@V?$basic_string@DU?$char_traits@D@std@@V?$allocator@D@2@@std@@PEAX@std@@@std@@@?$_List_node@V?$basic_string@DU?$char_traits@D@std@@V?$allocator@D@2@@std@@PEAX@std@@SAXAEAV?$allocator@U?$_List_node@V?$basic_string@DU?$char_traits@D@std@@V?$allocator@D@2@@std@@PEAX@std@@@1@PEAU01@@Z
	??$_Freenode@V?$allocator@U?$_List_node@V?$basic_string@DU?$char_traits@D@std@@V?$allocator@D@2@@std@@PEAX@std@@@std@@@?$_List_node@V?$basic_string@DU?$char_traits@D@std@@V?$allocator@D@2@@std@@PEAX@std@@SAXAEAV?$allocator@U?$_List_node@V?$basic_string@DU?$char_traits@D@std@@V?$allocator@D@2@@std@@PEAX@std@@@1@PEAU01@@Z
	??$_Getvals@_W@?$time_get@DV?$istreambuf_iterator@DU?$char_traits@D@std@@@std@@@std@@IEAAX_WAEBV_Locinfo@1@@Z
	??$_Getvals@_W@?$time_get@_WV?$istreambuf_iterator@_WU?$char_traits@_W@std@@@std@@@std@@IEAAX_WAEBV_Locinfo@1@@Z
	??$_Hash_array_representation@D@std@@YA_KQEBD_K@Z
	??$_Immortalize_memcpy_image@V_Future_error_category2@std@@@std@@YAAEBV_Future_error_category2@0@XZ
	??$_Insert_string@DU?$char_traits@D@std@@_K@std@@YAAEAV?$basic_ostream@DU?$char_traits@D@std@@@0@AEAV10@QEBD_K@Z
	??$_Integral_to_string@DH@std@@YA?AV?$basic_string@DU?$char_traits@D@std@@V?$allocator@D@2@@0@H@Z
	??$_Integral_to_string@D_J@std@@YA?AV?$basic_string@DU?$char_traits@D@std@@V?$allocator@D@2@@0@_J@Z
	??$_Maklocstr@D@std@@YAPEADPEBDPEADAEBU_Cvtvec@@@Z
	??$_Move_unchecked@PEAVResponse@cpr@@PEAV12@@std@@YAPEAVResponse@cpr@@PEAV12@00@Z
	??$_Range_construct_or_tidy@PEBUPart@cpr@@@?$vector@UPart@cpr@@V?$allocator@UPart@cpr@@@std@@@std@@AEAAXPEBUPart@cpr@@0Uforward_iterator_tag@1@@Z
	??$_Reallocate_grow_by@V<lambda_319d5e083f45f90dcdce5dce53cbb275>@@D@?$basic_string@DU?$char_traits@D@std@@V?$allocator@D@2@@std@@AEAAAEAV01@_KV<lambda_319d5e083f45f90dcdce5dce53cbb275>@@D@Z
	??$_Reallocate_grow_by@V<lambda_65e615be2a453ca0576c979606f46740>@@PEBD_K@?$basic_string@DU?$char_traits@D@std@@V?$allocator@D@2@@std@@AEAAAEAV01@_KV<lambda_65e615be2a453ca0576c979606f46740>@@PEBD_K@Z
	??$_Reallocate_grow_by@V<lambda_9013ee9e23efe4882b67eff5b0ecf103>@@$$V@?$basic_string@DU?$char_traits@D@std@@V?$allocator@D@2@@std@@AEAAAEAV01@_KV<lambda_9013ee9e23efe4882b67eff5b0ecf103>@@@Z
	??$_Reallocate_grow_by@V<lambda_e1befb086ad3257e3f042a63030725f7>@@_KD@?$basic_string@DU?$char_traits@D@std@@V?$allocator@D@2@@std@@AEAAAEAV01@_KV<lambda_e1befb086ad3257e3f042a63030725f7>@@_KD@Z
	??$_Reallocate_grow_by@V<lambda_f3a66ab6a0570788f31503db83886f49>@@_KPEBD_K@?$basic_string@DU?$char_traits@D@std@@V?$allocator@D@2@@std@@AEAAAEAV01@_KV<lambda_f3a66ab6a0570788f31503db83886f49>@@_KPEBD2@Z
	??$_To_absolute_time@_JU?$ratio@$00$0DOI@@std@@@std@@YA?A_PAEBV?$duration@_JU?$ratio@$00$0DOI@@std@@@chrono@0@@Z
	??$_To_xtime_10_day_clamped@_JU?$ratio@$00$0DLJKMKAA@@std@@@std@@YA_NAEAUxtime@@AEBV?$duration@_JU?$ratio@$00$0DLJKMKAA@@std@@@chrono@0@@Z
	??$_UIntegral_to_buff@DI@std@@YAPEADPEADI@Z
	??$_UIntegral_to_buff@D_K@std@@YAPEADPEAD_K@Z
	??$_Uninitialized_move@PEAU?$pair@V?$shared_ptr@VSession@cpr@@@std@@W4HttpMethod@MultiPerform@cpr@@@std@@V?$allocator@U?$pair@V?$shared_ptr@VSession@cpr@@@std@@W4HttpMethod@MultiPerform@cpr@@@std@@@2@@std@@YAPEAU?$pair@V?$shared_ptr@VSession@cpr@@@std@@W4HttpMethod@MultiPerform@cpr@@@0@QEAU10@0PEAU10@AEAV?$allocator@U?$pair@V?$shared_ptr@VSession@cpr@@@std@@W4HttpMethod@MultiPerform@cpr@@@std@@@0@@Z
	??$_Uninitialized_move@PEAUFile@cpr@@V?$allocator@UFile@cpr@@@std@@@std@@YAPEAUFile@cpr@@QEAU12@0PEAU12@AEAV?$allocator@UFile@cpr@@@0@@Z
	??$_Uninitialized_move@PEAUPair@cpr@@V?$allocator@UPair@cpr@@@std@@@std@@YAPEAUPair@cpr@@QEAU12@0PEAU12@AEAV?$allocator@UPair@cpr@@@0@@Z
	??$_Uninitialized_move@PEAUParameter@cpr@@V?$allocator@UParameter@cpr@@@std@@@std@@YAPEAUParameter@cpr@@QEAU12@0PEAU12@AEAV?$allocator@UParameter@cpr@@@0@@Z
	??$_Uninitialized_move@PEAV?$basic_string@DU?$char_traits@D@std@@V?$allocator@D@2@@std@@V?$allocator@V?$basic_string@DU?$char_traits@D@std@@V?$allocator@D@2@@std@@@2@@std@@YAPEAV?$basic_string@DU?$char_traits@D@std@@V?$allocator@D@2@@0@QEAV10@0PEAV10@AEAV?$allocator@V?$basic_string@DU?$char_traits@D@std@@V?$allocator@D@2@@std@@@0@@Z
	??$_Uninitialized_move@PEAVCookie@cpr@@V?$allocator@VCookie@cpr@@@std@@@std@@YAPEAVCookie@cpr@@QEAV12@0PEAV12@AEAV?$allocator@VCookie@cpr@@@0@@Z
	??$_Uninitialized_value_construct_n_unchecked1@PEAPEAV?$function@$$A6AXXZ@std@@_K@std@@YAPEAPEAV?$function@$$A6AXXZ@0@PEAPEAV10@_K@Z
	??$_Uninitialized_value_construct_n_unchecked1@PEAPEAV?$shared_ptr@VInterceptor@cpr@@@std@@_K@std@@YAPEAPEAV?$shared_ptr@VInterceptor@cpr@@@0@PEAPEAV10@_K@Z
	??$_Uninitialized_value_construct_n_unchecked1@PEAPEAV?$shared_ptr@VInterceptorMulti@cpr@@@std@@_K@std@@YAPEAPEAV?$shared_ptr@VInterceptorMulti@cpr@@@0@PEAPEAV10@_K@Z
	??$_Zero_range@PEAPEAV?$function@$$A6AXXZ@std@@@std@@YAPEAPEAV?$function@$$A6AXXZ@0@QEAPEAV10@0@Z
	??$_Zero_range@PEAPEAV?$shared_ptr@VInterceptor@cpr@@@std@@@std@@YAPEAPEAV?$shared_ptr@VInterceptor@cpr@@@0@QEAPEAV10@0@Z
	??$_Zero_range@PEAPEAV?$shared_ptr@VInterceptorMulti@cpr@@@std@@@std@@YAPEAPEAV?$shared_ptr@VInterceptorMulti@cpr@@@0@QEAPEAV10@0@Z
	??$construct@UFile@cpr@@AEBV?$basic_string@DU?$char_traits@D@std@@V?$allocator@D@2@@std@@@?$_Default_allocator_traits@V?$allocator@UFile@cpr@@@std@@@std@@SAXAEAV?$allocator@UFile@cpr@@@1@QEAUFile@cpr@@AEBV?$basic_string@DU?$char_traits@D@std@@V?$allocator@D@2@@1@@Z
	??$construct@V?$basic_string@DU?$char_traits@D@std@@V?$allocator@D@2@@std@@AEBV12@@?$_Default_allocator_traits@V?$allocator@V?$basic_string@DU?$char_traits@D@std@@V?$allocator@D@2@@std@@@std@@@std@@SAXAEAV?$allocator@V?$basic_string@DU?$char_traits@D@std@@V?$allocator@D@2@@std@@@1@QEAV?$basic_string@DU?$char_traits@D@std@@V?$allocator@D@2@@1@AEBV31@@Z
	??$destroy@U?$pair@$$CBV?$basic_string@DU?$char_traits@D@std@@V?$allocator@D@2@@std@@VEncodedAuthentication@cpr@@@std@@@?$_Default_allocator_traits@V?$allocator@U?$_Tree_node@U?$pair@$$CBV?$basic_string@DU?$char_traits@D@std@@V?$allocator@D@2@@std@@VEncodedAuthentication@cpr@@@std@@PEAX@std@@@std@@@std@@SAXAEAV?$allocator@U?$_Tree_node@U?$pair@$$CBV?$basic_string@DU?$char_traits@D@std@@V?$allocator@D@2@@std@@VEncodedAuthentication@cpr@@@std@@PEAX@std@@@1@QEAU?$pair@$$CBV?$basic_string@DU?$char_traits@D@std@@V?$allocator@D@2@@std@@VEncodedAuthentication@cpr@@@1@@Z
	??$destroy@UFile@cpr@@@?$_Default_allocator_traits@V?$allocator@UFile@cpr@@@std@@@std@@SAXAEAV?$allocator@UFile@cpr@@@1@QEAUFile@cpr@@@Z
	??$emplace_back@AEBUFile@cpr@@@?$vector@UFile@cpr@@V?$allocator@UFile@cpr@@@std@@@std@@QEAA?A_TAEBUFile@cpr@@@Z
	??$emplace_back@AEBVCookie@cpr@@@?$vector@VCookie@cpr@@V?$allocator@VCookie@cpr@@@std@@@std@@QEAA?A_TAEBVCookie@cpr@@@Z
	??$emplace_hint@V?$basic_string@DU?$char_traits@D@std@@V?$allocator@D@2@@std@@@?$_Hash@V?$_Uset_traits@V?$basic_string@DU?$char_traits@D@std@@V?$allocator@D@2@@std@@V?$_Uhash_compare@V?$basic_string@DU?$char_traits@D@std@@V?$allocator@D@2@@std@@U?$hash@V?$basic_string@DU?$char_traits@D@std@@V?$allocator@D@2@@std@@@2@U?$equal_to@V?$basic_string@DU?$char_traits@D@std@@V?$allocator@D@2@@std@@@2@@2@V?$allocator@V?$basic_string@DU?$char_traits@D@std@@V?$allocator@D@2@@std@@@2@$0A@@std@@@std@@QEAA?AV?$_List_const_iterator@V?$_List_val@U?$_List_simple_types@V?$basic_string@DU?$char_traits@D@std@@V?$allocator@D@2@@std@@@std@@@std@@@1@V21@$$QEAV?$basic_string@DU?$char_traits@D@std@@V?$allocator@D@2@@1@@Z
	??$endl@DU?$char_traits@D@std@@@std@@YAAEAV?$basic_ostream@DU?$char_traits@D@std@@@0@AEAV10@@Z
	??$fill@PEAV?$_List_unchecked_const_iterator@V?$_List_val@U?$_List_simple_types@V?$basic_string@DU?$char_traits@D@std@@V?$allocator@D@2@@std@@@std@@@std@@U_Iterator_base0@2@@std@@V12@@std@@YAXQEAV?$_List_unchecked_const_iterator@V?$_List_val@U?$_List_simple_types@V?$basic_string@DU?$char_traits@D@std@@V?$allocator@D@2@@std@@@std@@@std@@U_Iterator_base0@2@@0@0AEBV10@@Z
	??$getline@DU?$char_traits@D@std@@V?$allocator@D@2@@std@@YAAEAV?$basic_istream@DU?$char_traits@D@std@@@0@$$QEAV10@AEAV?$basic_string@DU?$char_traits@D@std@@V?$allocator@D@2@@0@D@Z
	??$getline@DU?$char_traits@D@std@@V?$allocator@D@2@@std@@YAAEAV?$basic_istream@DU?$char_traits@D@std@@@0@AEAV10@AEAV?$basic_string@DU?$char_traits@D@std@@V?$allocator@D@2@@0@D@Z
	??$insert@PEBV?$basic_string@DU?$char_traits@D@std@@V?$allocator@D@2@@std@@@?$_Hash@V?$_Uset_traits@V?$basic_string@DU?$char_traits@D@std@@V?$allocator@D@2@@std@@V?$_Uhash_compare@V?$basic_string@DU?$char_traits@D@std@@V?$allocator@D@2@@std@@U?$hash@V?$basic_string@DU?$char_traits@D@std@@V?$allocator@D@2@@std@@@2@U?$equal_to@V?$basic_string@DU?$char_traits@D@std@@V?$allocator@D@2@@std@@@2@@2@V?$allocator@V?$basic_string@DU?$char_traits@D@std@@V?$allocator@D@2@@std@@@2@$0A@@std@@@std@@QEAAXPEBV?$basic_string@DU?$char_traits@D@std@@V?$allocator@D@2@@1@0@Z
	??$make_exception_ptr@Vfuture_error@std@@@std@@YA?AVexception_ptr@0@Vfuture_error@0@@Z
	??$progressUserFunction@VCancellationCallback@cpr@@@util@cpr@@YAHPEBVCancellationCallback@1@_J111@Z
	??$progressUserFunction@VProgressCallback@cpr@@@util@cpr@@YAHPEBVProgressCallback@1@_J111@Z
	??$put_time@D@std@@YA?AU?$_Timeobj@DPEBUtm@@@0@PEBUtm@@PEBD@Z
	??$uninitialized_copy@PEAPEAV?$function@$$A6AXXZ@std@@PEAPEAV12@@std@@YAPEAPEAV?$function@$$A6AXXZ@0@QEAPEAV10@0PEAPEAV10@@Z
	??$uninitialized_copy@PEAPEAV?$shared_ptr@VInterceptor@cpr@@@std@@PEAPEAV12@@std@@YAPEAPEAV?$shared_ptr@VInterceptor@cpr@@@0@QEAPEAV10@0PEAPEAV10@@Z
	??$uninitialized_copy@PEAPEAV?$shared_ptr@VInterceptorMulti@cpr@@@std@@PEAPEAV12@@std@@YAPEAPEAV?$shared_ptr@VInterceptorMulti@cpr@@@0@QEAPEAV10@0PEAPEAV10@@Z
	??$uninitialized_fill@PEAV?$_List_unchecked_const_iterator@V?$_List_val@U?$_List_simple_types@V?$basic_string@DU?$char_traits@D@std@@V?$allocator@D@2@@std@@@std@@@std@@U_Iterator_base0@2@@std@@V12@@std@@YAXQEAV?$_List_unchecked_const_iterator@V?$_List_val@U?$_List_simple_types@V?$basic_string@DU?$char_traits@D@std@@V?$allocator@D@2@@std@@@std@@@std@@U_Iterator_base0@2@@0@0AEBV10@@Z
	??$use_facet@V?$time_put@DV?$ostreambuf_iterator@DU?$char_traits@D@std@@@std@@@std@@@std@@YAAEBV?$time_put@DV?$ostreambuf_iterator@DU?$char_traits@D@std@@@std@@@0@AEBVlocale@0@@Z
	??0?$CurlContainer@UPair@cpr@@@cpr@@QEAA@AEBV?$initializer_list@UPair@cpr@@@std@@@Z
	??0?$CurlContainer@UParameter@cpr@@@cpr@@QEAA@AEBV?$initializer_list@UParameter@cpr@@@std@@@Z
	??0?$_Associated_state@VResponse@cpr@@@std@@QEAA@PEAU?$_Deleter_base@VResponse@cpr@@@1@@Z
	??0?$_Hash@V?$_Uset_traits@V?$basic_string@DU?$char_traits@D@std@@V?$allocator@D@2@@std@@V?$_Uhash_compare@V?$basic_string@DU?$char_traits@D@std@@V?$allocator@D@2@@std@@U?$hash@V?$basic_string@DU?$char_traits@D@std@@V?$allocator@D@2@@std@@@2@U?$equal_to@V?$basic_string@DU?$char_traits@D@std@@V?$allocator@D@2@@std@@@2@@2@V?$allocator@V?$basic_string@DU?$char_traits@D@std@@V?$allocator@D@2@@std@@@2@$0A@@std@@@std@@IEAA@AEBV?$_Uhash_compare@V?$basic_string@DU?$char_traits@D@std@@V?$allocator@D@2@@std@@U?$hash@V?$basic_string@DU?$char_traits@D@std@@V?$allocator@D@2@@std@@@2@U?$equal_to@V?$basic_string@DU?$char_traits@D@std@@V?$allocator@D@2@@std@@@2@@1@AEBV?$allocator@V?$basic_string@DU?$char_traits@D@std@@V?$allocator@D@2@@std@@@1@@Z
	??0?$basic_string@DU?$char_traits@D@std@@V?$allocator@D@2@@std@@QEAA@AEBV01@@Z
	??0?$basic_string@DU?$char_traits@D@std@@V?$allocator@D@2@@std@@QEAA@U_String_constructor_concat_tag@1@AEAV01@1@Z
	??0?$basic_string@DU?$char_traits@D@std@@V?$allocator@D@2@@std@@QEAA@U_String_constructor_concat_tag@1@AEBV01@QEBD_K23@Z
	??0?$basic_stringbuf@DU?$char_traits@D@std@@V?$allocator@D@2@@std@@QEAA@AEBV?$basic_string@DU?$char_traits@D@std@@V?$allocator@D@2@@1@H@Z
	??0AcceptEncoding@cpr@@QEAA@AEBV?$initializer_list@V?$basic_string@DU?$char_traits@D@std@@V?$allocator@D@2@@std@@@std@@@Z
	??0AcceptEncoding@cpr@@QEAA@AEBV?$initializer_list@W4AcceptEncodingMethods@cpr@@@std@@@Z
	??0CertInfo@cpr@@QEAA@AEBV01@@Z
	??0Cookie@cpr@@QEAA@AEBV01@@Z
	??0CurlHolder@cpr@@QEAA@XZ
	??0CurlMultiHolder@cpr@@QEAA@XZ
	??0Files@cpr@@QEAA@AEBV?$initializer_list@V?$basic_string@DU?$char_traits@D@std@@V?$allocator@D@2@@std@@@std@@@Z
	??0MultiPerform@cpr@@QEAA@XZ
	??0Multipart@cpr@@QEAA@AEBV?$initializer_list@UPart@cpr@@@std@@@Z
	??0Parameters@cpr@@QEAA@AEBV?$initializer_list@UParameter@cpr@@@std@@@Z
	??0Payload@cpr@@QEAA@AEBV?$initializer_list@UPair@cpr@@@std@@@Z
	??0Proxies@cpr@@QEAA@AEBV?$initializer_list@U?$pair@$$CBV?$basic_string@DU?$char_traits@D@std@@V?$allocator@D@2@@std@@V12@@std@@@std@@@Z
	??0Proxies@cpr@@QEAA@AEBV?$map@V?$basic_string@DU?$char_traits@D@std@@V?$allocator@D@2@@std@@V12@U?$less@V?$basic_string@DU?$char_traits@D@std@@V?$allocator@D@2@@std@@@2@V?$allocator@U?$pair@$$CBV?$basic_string@DU?$char_traits@D@std@@V?$allocator@D@2@@std@@V12@@std@@@2@@std@@@Z
	??0Resolve@cpr@@QEAA@AEBV01@@Z
	??0Response@cpr@@QEAA@$$QEAV01@@Z
	??0Response@cpr@@QEAA@AEBV01@@Z
	??0Response@cpr@@QEAA@V?$shared_ptr@UCurlHolder@cpr@@@std@@$$QEAV?$basic_string@DU?$char_traits@D@std@@V?$allocator@D@2@@3@1$$QEAVCookies@1@$$QEAVError@1@@Z
	??0Session@cpr@@QEAA@XZ
	??0ThreadPool@cpr@@QEAA@_K0V?$duration@_JU?$ratio@$00$0DOI@@std@@@chrono@std@@@Z
	??0Url@cpr@@QEAA@V?$basic_string@DU?$char_traits@D@std@@V?$allocator@D@2@@std@@@Z
	??0bad_alloc@std@@QEAA@AEBV01@@Z
	??0bad_array_new_length@std@@QEAA@AEBV01@@Z
	??0bad_array_new_length@std@@QEAA@XZ
	??0bad_cast@std@@QEAA@AEBV01@@Z
	??0bad_cast@std@@QEAA@XZ
	??0bad_weak_ptr@std@@QEAA@AEBV01@@Z
	??0bad_weak_ptr@std@@QEAA@XZ
	??0exception@std@@QEAA@AEBV01@@Z
	??0exception_ptr@std@@QEAA@AEBV01@@Z
	??0future_error@std@@QEAA@AEBV01@@Z
	??0invalid_argument@std@@QEAA@AEBV01@@Z
	??0invalid_argument@std@@QEAA@AEBV?$basic_string@DU?$char_traits@D@std@@V?$allocator@D@2@@1@@Z
	??0invalid_argument@std@@QEAA@PEBD@Z
	??0logic_error@std@@QEAA@AEBV01@@Z
	??0overflow_error@std@@QEAA@AEBV01@@Z
	??0overflow_error@std@@QEAA@AEBV?$basic_string@DU?$char_traits@D@std@@V?$allocator@D@2@@1@@Z
	??0runtime_error@std@@QEAA@AEBV01@@Z
	??0runtime_error@std@@QEAA@PEBD@Z
	??0underflow_error@std@@QEAA@AEBV01@@Z
	??0underflow_error@std@@QEAA@AEBV?$basic_string@DU?$char_traits@D@std@@V?$allocator@D@2@@1@@Z
	??1?$AsyncWrapper@VResponse@cpr@@$0A@@cpr@@QEAA@XZ
	??1?$StringHolder@VUrl@cpr@@@cpr@@UEAA@XZ
	??1?$_Alloc_construct_ptr@V?$allocator@U?$_List_node@UThreadData@ThreadPool@cpr@@PEAX@std@@@std@@@std@@QEAA@XZ
	??1?$_Alloc_construct_ptr@V?$allocator@U?$_List_node@V?$basic_string@DU?$char_traits@D@std@@V?$allocator@D@2@@std@@PEAX@std@@@std@@@std@@QEAA@XZ
	??1?$_Alloc_construct_ptr@V?$allocator@U?$_Tree_node@GPEAX@std@@@std@@@std@@QEAA@XZ
	??1?$_Alloc_construct_ptr@V?$allocator@U?$_Tree_node@U?$pair@$$CBV?$basic_string@DU?$char_traits@D@std@@V?$allocator@D@2@@std@@V12@@std@@PEAX@std@@@std@@@std@@QEAA@XZ
	??1?$_Alloc_construct_ptr@V?$allocator@U?$_Tree_node@U?$pair@$$CBV?$basic_string@DU?$char_traits@D@std@@V?$allocator@D@2@@std@@VEncodedAuthentication@cpr@@@std@@PEAX@std@@@std@@@std@@QEAA@XZ
	??1?$_Alloc_construct_ptr@V?$allocator@U?$_Tree_node@U?$pair@$$CBW4AcceptEncodingMethods@cpr@@V?$basic_string@DU?$char_traits@D@std@@V?$allocator@D@2@@std@@@std@@PEAX@std@@@std@@@std@@QEAA@XZ
	??1?$_Associated_state@VResponse@cpr@@@std@@UEAA@XZ
	??1?$_Func_class@VResponse@cpr@@$$V@std@@QEAA@XZ
	??1?$_Func_class@XW4InfoType@DebugCallback@cpr@@V?$basic_string@DU?$char_traits@D@std@@V?$allocator@D@2@@std@@_J@std@@QEAA@XZ
	??1?$_Func_class@_NPEADAEA_K_J@std@@QEAA@XZ
	??1?$_Func_class@_NV?$basic_string@DU?$char_traits@D@std@@V?$allocator@D@2@@std@@_J@std@@QEAA@XZ
	??1?$_Func_class@_N_J_J_J_J_J@std@@QEAA@XZ
	??1?$_Hash@V?$_Uset_traits@V?$basic_string@DU?$char_traits@D@std@@V?$allocator@D@2@@std@@V?$_Uhash_compare@V?$basic_string@DU?$char_traits@D@std@@V?$allocator@D@2@@std@@U?$hash@V?$basic_string@DU?$char_traits@D@std@@V?$allocator@D@2@@std@@@2@U?$equal_to@V?$basic_string@DU?$char_traits@D@std@@V?$allocator@D@2@@std@@@2@@2@V?$allocator@V?$basic_string@DU?$char_traits@D@std@@V?$allocator@D@2@@std@@@2@$0A@@std@@@std@@QEAA@XZ
	??1?$_Hash_vec@V?$allocator@V?$_List_unchecked_const_iterator@V?$_List_val@U?$_List_simple_types@V?$basic_string@DU?$char_traits@D@std@@V?$allocator@D@2@@std@@@std@@@std@@U_Iterator_base0@2@@std@@@std@@@std@@QEAA@XZ
	??1?$_List_node_emplace_op2@V?$allocator@U?$_List_node@V?$basic_string@DU?$char_traits@D@std@@V?$allocator@D@2@@std@@PEAX@std@@@std@@@std@@QEAA@XZ
	??1?$_List_node_insert_op2@V?$allocator@U?$_List_node@V?$basic_string@DU?$char_traits@D@std@@V?$allocator@D@2@@std@@PEAX@std@@@std@@@std@@QEAA@XZ
	??1?$_Ref_count_obj2@V?$packaged_task@$$A6A?AVResponse@cpr@@XZ@std@@@std@@UEAA@XZ
	??1?$_Temporary_owner@UCurlHolder@cpr@@@std@@QEAA@XZ
	??1?$_Temporary_owner@Vthread@std@@@std@@QEAA@XZ
	??1?$_Tidy_guard@V?$vector@UFile@cpr@@V?$allocator@UFile@cpr@@@std@@@std@@@std@@QEAA@XZ
	??1?$_Tidy_guard@V?$vector@UPair@cpr@@V?$allocator@UPair@cpr@@@std@@@std@@@std@@QEAA@XZ
	??1?$_Tidy_guard@V?$vector@UParameter@cpr@@V?$allocator@UParameter@cpr@@@std@@@std@@@std@@QEAA@XZ
	??1?$_Tidy_guard@V?$vector@UPart@cpr@@V?$allocator@UPart@cpr@@@std@@@std@@@std@@QEAA@XZ
	??1?$_Tidy_guard@V?$vector@V?$basic_string@DU?$char_traits@D@std@@V?$allocator@D@2@@std@@V?$allocator@V?$basic_string@DU?$char_traits@D@std@@V?$allocator@D@2@@std@@@2@@std@@@std@@QEAA@XZ
	??1?$_Tidy_guard@V?$vector@VCookie@cpr@@V?$allocator@VCookie@cpr@@@std@@@std@@@std@@QEAA@XZ
	??1?$_Tidy_guard@V?$vector@VResolve@cpr@@V?$allocator@VResolve@cpr@@@std@@@std@@@std@@QEAA@XZ
	??1?$_Tree@V?$_Tmap_traits@V?$basic_string@DU?$char_traits@D@std@@V?$allocator@D@2@@std@@V12@U?$less@V?$basic_string@DU?$char_traits@D@std@@V?$allocator@D@2@@std@@@2@V?$allocator@U?$pair@$$CBV?$basic_string@DU?$char_traits@D@std@@V?$allocator@D@2@@std@@V12@@std@@@2@$0A@@std@@@std@@QEAA@XZ
	??1?$_Tree@V?$_Tmap_traits@W4AcceptEncodingMethods@cpr@@V?$basic_string@DU?$char_traits@D@std@@V?$allocator@D@2@@std@@U?$less@W4AcceptEncodingMethods@cpr@@@4@V?$allocator@U?$pair@$$CBW4AcceptEncodingMethods@cpr@@V?$basic_string@DU?$char_traits@D@std@@V?$allocator@D@2@@std@@@std@@@4@$0A@@std@@@std@@QEAA@XZ
	??1?$_Tree_head_scoped_ptr@V?$allocator@U?$_Tree_node@GPEAX@std@@@std@@V?$_Tree_val@U?$_Tree_simple_types@G@std@@@2@@std@@QEAA@XZ
	??1?$_Tree_head_scoped_ptr@V?$allocator@U?$_Tree_node@U?$pair@$$CBV?$basic_string@DU?$char_traits@D@std@@V?$allocator@D@2@@std@@V12@@std@@PEAX@std@@@std@@V?$_Tree_val@U?$_Tree_simple_types@U?$pair@$$CBV?$basic_string@DU?$char_traits@D@std@@V?$allocator@D@2@@std@@V12@@std@@@std@@@2@@std@@QEAA@XZ
	??1?$_Tree_temp_node_alloc@V?$allocator@U?$_Tree_node@U?$pair@$$CBV?$basic_string@DU?$char_traits@D@std@@V?$allocator@D@2@@std@@V12@@std@@PEAX@std@@@std@@@std@@QEAA@XZ
	??1?$_Tree_temp_node_alloc@V?$allocator@U?$_Tree_node@U?$pair@$$CBV?$basic_string@DU?$char_traits@D@std@@V?$allocator@D@2@@std@@VEncodedAuthentication@cpr@@@std@@PEAX@std@@@std@@@std@@QEAA@XZ
	??1?$_Tree_temp_node_alloc@V?$allocator@U?$_Tree_node@U?$pair@$$CBW4AcceptEncodingMethods@cpr@@V?$basic_string@DU?$char_traits@D@std@@V?$allocator@D@2@@std@@@std@@PEAX@std@@@std@@@std@@QEAA@XZ
	??1?$_Uninitialized_backout_al@V?$allocator@UFile@cpr@@@std@@@std@@QEAA@XZ
	??1?$_Uninitialized_backout_al@V?$allocator@UPair@cpr@@@std@@@std@@QEAA@XZ
	??1?$_Uninitialized_backout_al@V?$allocator@UParameter@cpr@@@std@@@std@@QEAA@XZ
	??1?$_Uninitialized_backout_al@V?$allocator@UPart@cpr@@@std@@@std@@QEAA@XZ
	??1?$_Uninitialized_backout_al@V?$allocator@V?$basic_string@DU?$char_traits@D@std@@V?$allocator@D@2@@std@@@std@@@std@@QEAA@XZ
	??1?$_Uninitialized_backout_al@V?$allocator@VCertInfo@cpr@@@std@@@std@@QEAA@XZ
	??1?$_Uninitialized_backout_al@V?$allocator@VCookie@cpr@@@std@@@std@@QEAA@XZ
	??1?$_Uninitialized_backout_al@V?$allocator@VResolve@cpr@@@std@@@std@@QEAA@XZ
	??1?$basic_istringstream@DU?$char_traits@D@std@@V?$allocator@D@2@@std@@UEAA@XZ
	??1?$basic_string@DU?$char_traits@D@std@@V?$allocator@D@2@@std@@QEAA@XZ
	??1?$basic_stringbuf@DU?$char_traits@D@std@@V?$allocator@D@2@@std@@UEAA@XZ
	??1?$basic_stringstream@DU?$char_traits@D@std@@V?$allocator@D@2@@std@@UEAA@XZ
	??1?$deque@V?$function@$$A6AXXZ@std@@V?$allocator@V?$function@$$A6AXXZ@std@@@2@@std@@QEAA@XZ
	??1?$deque@V?$shared_ptr@VInterceptor@cpr@@@std@@V?$allocator@V?$shared_ptr@VInterceptor@cpr@@@std@@@2@@std@@QEAA@XZ
	??1?$deque@V?$shared_ptr@VInterceptorMulti@cpr@@@std@@V?$allocator@V?$shared_ptr@VInterceptorMulti@cpr@@@std@@@2@@std@@QEAA@XZ
	??1?$enable_shared_from_this@VSession@cpr@@@std@@IEAA@XZ
	??1?$function@$$A6A?AVResponse@cpr@@AEAVSession@2@W4CURLcode@@@Z@std@@QEAA@XZ
	??1?$function@$$A6AXXZ@std@@QEAA@XZ
	??1?$future@VResponse@cpr@@@std@@QEAA@XZ
	??1?$list@UThreadData@ThreadPool@cpr@@V?$allocator@UThreadData@ThreadPool@cpr@@@std@@@std@@QEAA@XZ
	??1?$list@V?$basic_string@DU?$char_traits@D@std@@V?$allocator@D@2@@std@@V?$allocator@V?$basic_string@DU?$char_traits@D@std@@V?$allocator@D@2@@std@@@2@@std@@QEAA@XZ
	??1?$lock_guard@Vmutex@std@@@std@@QEAA@XZ
	??1?$map@V?$basic_string@DU?$char_traits@D@std@@V?$allocator@D@2@@std@@V12@UCaseInsensitiveCompare@cpr@@V?$allocator@U?$pair@$$CBV?$basic_string@DU?$char_traits@D@std@@V?$allocator@D@2@@std@@V12@@std@@@2@@std@@QEAA@XZ
	??1?$packaged_task@$$A6A?AVResponse@cpr@@XZ@std@@QEAA@XZ
	??1?$pair@$$CBV?$basic_string@DU?$char_traits@D@std@@V?$allocator@D@2@@std@@V12@@std@@QEAA@XZ
	??1?$pair@$$CBW4AcceptEncodingMethods@cpr@@V?$basic_string@DU?$char_traits@D@std@@V?$allocator@D@2@@std@@@std@@QEAA@XZ
	??1?$queue@V?$shared_ptr@VInterceptor@cpr@@@std@@V?$deque@V?$shared_ptr@VInterceptor@cpr@@@std@@V?$allocator@V?$shared_ptr@VInterceptor@cpr@@@std@@@2@@2@@std@@QEAA@XZ
	??1?$shared_ptr@UCurlHolder@cpr@@@std@@QEAA@XZ
	??1?$shared_ptr@V?$packaged_task@$$A6A?AVResponse@cpr@@XZ@std@@@std@@QEAA@XZ
	??1?$shared_ptr@VInterceptor@cpr@@@std@@QEAA@XZ
	??1?$shared_ptr@VInterceptorMulti@cpr@@@std@@QEAA@XZ
	??1?$shared_ptr@VSession@cpr@@@std@@QEAA@XZ
	??1?$unique_lock@Vmutex@std@@@std@@QEAA@XZ
	??1?$unique_ptr@VCurlMultiHolder@cpr@@U?$default_delete@VCurlMultiHolder@cpr@@@std@@@std@@QEAA@XZ
	??1?$unique_ptr@V_Facet_base@std@@U?$default_delete@V_Facet_base@std@@@2@@std@@QEAA@XZ
	??1?$unordered_set@V?$basic_string@DU?$char_traits@D@std@@V?$allocator@D@2@@std@@U?$hash@V?$basic_string@DU?$char_traits@D@std@@V?$allocator@D@2@@std@@@2@U?$equal_to@V?$basic_string@DU?$char_traits@D@std@@V?$allocator@D@2@@std@@@2@V?$allocator@V?$basic_string@DU?$char_traits@D@std@@V?$allocator@D@2@@std@@@2@@std@@QEAA@XZ
	??1?$vector@U?$pair@V?$shared_ptr@VSession@cpr@@@std@@W4HttpMethod@MultiPerform@cpr@@@std@@V?$allocator@U?$pair@V?$shared_ptr@VSession@cpr@@@std@@W4HttpMethod@MultiPerform@cpr@@@std@@@2@@std@@QEAA@XZ
	??1?$vector@UFile@cpr@@V?$allocator@UFile@cpr@@@std@@@std@@QEAA@XZ
	??1?$vector@V?$basic_string@DU?$char_traits@D@std@@V?$allocator@D@2@@std@@V?$allocator@V?$basic_string@DU?$char_traits@D@std@@V?$allocator@D@2@@std@@@2@@std@@QEAA@XZ
	??1?$vector@VCertInfo@cpr@@V?$allocator@VCertInfo@cpr@@@std@@@std@@QEAA@XZ
	??1?$vector@VResolve@cpr@@V?$allocator@VResolve@cpr@@@std@@@std@@QEAA@XZ
	??1?$vector@VResponse@cpr@@V?$allocator@VResponse@cpr@@@std@@@std@@QEAA@XZ
	??1AcceptEncoding@cpr@@QEAA@XZ
	??1Authentication@cpr@@QEAA@XZ
	??1Bearer@cpr@@UEAA@XZ
	??1CancellationCallback@cpr@@QEAA@XZ
	??1CertInfo@cpr@@QEAA@XZ
	??1Cookie@cpr@@QEAA@XZ
	??1Cookies@cpr@@QEAA@XZ
	??1CurlHolder@cpr@@QEAA@XZ
	??1CurlMultiHolder@cpr@@QEAA@XZ
	??1DebugCallback@cpr@@QEAA@XZ
	??1EncodedAuthentication@cpr@@UEAA@XZ
	??1Error@cpr@@QEAA@XZ
	??1File@cpr@@QEAA@XZ
	??1GlobalThreadPool@cpr@@UEAA@XZ
	??1HeaderCallback@cpr@@QEAA@XZ
	??1MultiPerform@cpr@@QEAA@XZ
	??1Pair@cpr@@QEAA@XZ
	??1Parameter@cpr@@QEAA@XZ
	??1Parameters@cpr@@QEAA@XZ
	??1ProgressCallback@cpr@@QEAA@XZ
	??1Proxies@cpr@@QEAA@XZ
	??1ProxyAuthentication@cpr@@QEAA@XZ
	??1ReadCallback@cpr@@QEAA@XZ
	??1Resolve@cpr@@QEAA@XZ
	??1Response@cpr@@QEAA@XZ
	??1ThreadData@ThreadPool@cpr@@QEAA@XZ
	??1ThreadPool@cpr@@UEAA@XZ
	??1Url@cpr@@UEAA@XZ
	??1WriteCallback@cpr@@QEAA@XZ
	??1_Clear_guard@?$_Hash@V?$_Uset_traits@V?$basic_string@DU?$char_traits@D@std@@V?$allocator@D@2@@std@@V?$_Uhash_compare@V?$basic_string@DU?$char_traits@D@std@@V?$allocator@D@2@@std@@U?$hash@V?$basic_string@DU?$char_traits@D@std@@V?$allocator@D@2@@std@@@2@U?$equal_to@V?$basic_string@DU?$char_traits@D@std@@V?$allocator@D@2@@std@@@2@@2@V?$allocator@V?$basic_string@DU?$char_traits@D@std@@V?$allocator@D@2@@std@@@2@$0A@@std@@@std@@QEAA@XZ
	??1_Ref_count_base@std@@UEAA@XZ
	??1_Sentry_base@?$basic_istream@DU?$char_traits@D@std@@@std@@QEAA@XZ
	??1_Sentry_base@?$basic_ostream@DU?$char_traits@D@std@@@std@@QEAA@XZ
	??1bad_array_new_length@std@@UEAA@XZ
	??1bad_cast@std@@UEAA@XZ
	??1bad_weak_ptr@std@@UEAA@XZ
	??1error_category@std@@UEAA@XZ
	??1exception@std@@UEAA@XZ
	??1exception_ptr@std@@QEAA@XZ
	??1future_error@std@@UEAA@XZ
	??1invalid_argument@std@@UEAA@XZ
	??1locale@std@@QEAA@XZ
	??1mutex@std@@QEAA@XZ
	??1overflow_error@std@@UEAA@XZ
	??1runtime_error@std@@UEAA@XZ
	??1sentry@?$basic_istream@DU?$char_traits@D@std@@@std@@QEAA@XZ
	??1sentry@?$basic_ostream@DU?$char_traits@D@std@@@std@@QEAA@XZ
	??1underflow_error@std@@UEAA@XZ
	??4?$basic_string@DU?$char_traits@D@std@@V?$allocator@D@2@@std@@QEAAAEAV01@$$QEAV01@@Z
	??4?$function@$$A6AXW4InfoType@DebugCallback@cpr@@V?$basic_string@DU?$char_traits@D@std@@V?$allocator@D@2@@std@@_J@Z@std@@QEAAAEAV01@AEBV01@@Z
	??4?$function@$$A6A_NPEADAEA_K_J@Z@std@@QEAAAEAV01@AEBV01@@Z
	??4?$function@$$A6A_NV?$basic_string@DU?$char_traits@D@std@@V?$allocator@D@2@@std@@_J@Z@std@@QEAAAEAV01@AEBV01@@Z
	??4?$function@$$A6A_N_J0000@Z@std@@QEAAAEAV01@AEBV01@@Z
	??4Files@cpr@@QEAAAEAV01@$$QEAV01@@Z
	??4Files@cpr@@QEAAAEAV01@AEBV01@@Z
	??4Response@cpr@@QEAAAEAV01@$$QEAV01@@Z
	??ACertInfo@cpr@@QEAAAEAV?$basic_string@DU?$char_traits@D@std@@V?$allocator@D@2@@std@@AEB_K@Z
	??ACookies@cpr@@QEAAAEAVCookie@1@_K@Z
	??AProxies@cpr@@QEAAAEBV?$basic_string@DU?$char_traits@D@std@@V?$allocator@D@2@@std@@AEBV23@@Z
	??AProxyAuthentication@cpr@@QEAAPEBDAEBV?$basic_string@DU?$char_traits@D@std@@V?$allocator@D@2@@std@@@Z
	??Icpr@@YA?AW4PostRedirectFlags@0@W410@0@Z
	??R?$less@V?$basic_string@DU?$char_traits@D@std@@V?$allocator@D@2@@std@@@std@@QEBA_NAEBV?$basic_string@DU?$char_traits@D@std@@V?$allocator@D@2@@1@0@Z
	??R?$packaged_task@$$A6A?AVResponse@cpr@@XZ@std@@QEAAXXZ
	??RCancellationCallback@cpr@@QEBA_N_J000@Z
	??RCaseInsensitiveCompare@cpr@@QEBA_NAEBV?$basic_string@DU?$char_traits@D@std@@V?$allocator@D@2@@std@@0@Z
	??Scpr@@YA?AW4PostRedirectFlags@0@W410@@Z
	??Tcpr@@YA?AW4PostRedirectFlags@0@W410@0@Z
	??Ucpr@@YA?AW4PostRedirectFlags@0@W410@0@Z
	??_4cpr@@YAAEAW4PostRedirectFlags@0@AEAW410@W410@@Z
	??_5cpr@@YAAEAW4PostRedirectFlags@0@AEAW410@W410@@Z
	??_6cpr@@YAAEAW4PostRedirectFlags@0@AEAW410@W410@@Z
	??_7?$StringHolder@VUrl@cpr@@@cpr@@6B@
	??_7?$_Associated_state@VResponse@cpr@@@std@@6B@
	??_7?$_Packaged_state@$$A6A?AVResponse@cpr@@XZ@std@@6B@
	??_7?$_Ref_count@UCurlHolder@cpr@@@std@@6B@
	??_7?$_Ref_count@Vthread@std@@@std@@6B@
	??_7?$_Ref_count_obj2@V?$packaged_task@$$A6A?AVResponse@cpr@@XZ@std@@@std@@6B@
	??_7?$basic_istringstream@DU?$char_traits@D@std@@V?$allocator@D@2@@std@@6B@
	??_7?$basic_stringbuf@DU?$char_traits@D@std@@V?$allocator@D@2@@std@@6B@
	??_7?$basic_stringstream@DU?$char_traits@D@std@@V?$allocator@D@2@@std@@6B@
	??_7Bearer@cpr@@6B@
	??_7EncodedAuthentication@cpr@@6B@
	??_7GlobalThreadPool@cpr@@6B@
	??_7ThreadPool@cpr@@6B@
	??_7Url@cpr@@6B@
	??_7_Future_error_category2@std@@6B@
	??_7bad_alloc@std@@6B@
	??_7bad_array_new_length@std@@6B@
	??_7bad_cast@std@@6B@
	??_7bad_weak_ptr@std@@6B@
	??_7exception@std@@6B@
	??_7future_error@std@@6B@
	??_7invalid_argument@std@@6B@
	??_7logic_error@std@@6B@
	??_7overflow_error@std@@6B@
	??_7runtime_error@std@@6B@
	??_7underflow_error@std@@6B@
	??_D?$basic_istringstream@DU?$char_traits@D@std@@V?$allocator@D@2@@std@@QEAAXXZ
	??_D?$basic_stringstream@DU?$char_traits@D@std@@V?$allocator@D@2@@std@@QEAAXXZ
	??__Fcurl_easy_init_mutex_@?1??curl_easy_init_mutex_@CurlHolder@cpr@@CAAEAVmutex@std@@XZ@YAXXZ
	?Add@?$CurlContainer@UPair@cpr@@@cpr@@QEAAXAEBUPair@2@@Z
	?Add@?$CurlContainer@UPair@cpr@@@cpr@@QEAAXAEBV?$initializer_list@UPair@cpr@@@std@@@Z
	?Add@?$CurlContainer@UParameter@cpr@@@cpr@@QEAAXAEBUParameter@2@@Z
	?Add@?$CurlContainer@UParameter@cpr@@@cpr@@QEAAXAEBV?$initializer_list@UParameter@cpr@@@std@@@Z
	?AddInterceptor@MultiPerform@cpr@@QEAAXAEBV?$shared_ptr@VInterceptorMulti@cpr@@@std@@@Z
	?AddInterceptor@Session@cpr@@QEAAXAEBV?$shared_ptr@VInterceptor@cpr@@@std@@@Z
	?AddSession@MultiPerform@cpr@@QEAAXAEAV?$shared_ptr@VSession@cpr@@@std@@W4HttpMethod@12@@Z
	?AddThread@ThreadPool@cpr@@AEAAXPEAVthread@std@@@Z
	?Complete@Session@cpr@@QEAA?AVResponse@2@W4CURLcode@@@Z
	?CompleteDownload@Session@cpr@@QEAA?AVResponse@2@W4CURLcode@@@Z
	?CreateThread@ThreadPool@cpr@@AEAA_NXZ
	?DelThread@ThreadPool@cpr@@AEAAXVid@thread@std@@@Z
	?Delete@MultiPerform@cpr@@QEAA?AV?$vector@VResponse@cpr@@V?$allocator@VResponse@cpr@@@std@@@std@@XZ
	?Delete@Session@cpr@@QEAA?AVResponse@2@XZ
	?DeleteAsync@Session@cpr@@QEAA?AV?$AsyncWrapper@VResponse@cpr@@$0A@@2@XZ
	?DoEasyPerform@Session@cpr@@AEAA?AW4CURLcode@@XZ
	?DoMultiPerform@MultiPerform@cpr@@AEAAXXZ
	?Download@Session@cpr@@QEAA?AVResponse@2@AEAV?$basic_ofstream@DU?$char_traits@D@std@@@std@@@Z
	?Download@Session@cpr@@QEAA?AVResponse@2@AEBVWriteCallback@2@@Z
	?DownloadAsync@Session@cpr@@QEAA?AV?$AsyncWrapper@VResponse@cpr@@$0A@@2@AEAV?$basic_ofstream@DU?$char_traits@D@std@@@std@@@Z
	?DownloadAsync@Session@cpr@@QEAA?AV?$AsyncWrapper@VResponse@cpr@@$0A@@2@AEBVWriteCallback@2@@Z
	?ExitInstance@GlobalThreadPool@cpr@@SAXXZ
	?Get@MultiPerform@cpr@@QEAA?AV?$vector@VResponse@cpr@@V?$allocator@VResponse@cpr@@@std@@@std@@XZ
	?Get@Session@cpr@@QEAA?AVResponse@2@XZ
	?GetAsync@Session@cpr@@QEAA?AV?$AsyncWrapper@VResponse@cpr@@$0A@@2@XZ
	?GetAuthMode@Authentication@cpr@@QEBA?AW4AuthMode@2@XZ
	?GetAuthString@Authentication@cpr@@QEBAPEBDXZ
	?GetAuthString@EncodedAuthentication@cpr@@QEBAPEBDXZ
	?GetCertInfos@Response@cpr@@QEAA?AV?$vector@VCertInfo@cpr@@V?$allocator@VCertInfo@cpr@@@std@@@std@@XZ
	?GetContent@?$CurlContainer@UPair@cpr@@@cpr@@QEBA?BV?$basic_string@DU?$char_traits@D@std@@V?$allocator@D@2@@std@@AEBUCurlHolder@2@@Z
	?GetContent@?$CurlContainer@UParameter@cpr@@@cpr@@QEBA?BV?$basic_string@DU?$char_traits@D@std@@V?$allocator@D@2@@std@@AEBUCurlHolder@2@@Z
	?GetCurlHolder@Session@cpr@@QEAA?AV?$shared_ptr@UCurlHolder@cpr@@@std@@XZ
	?GetDomain@Cookie@cpr@@QEBA?BV?$basic_string@DU?$char_traits@D@std@@V?$allocator@D@2@@std@@XZ
	?GetDownloadFileLength@Session@cpr@@QEAA_JXZ
	?GetEncoded@Cookies@cpr@@QEBA?BV?$basic_string@DU?$char_traits@D@std@@V?$allocator@D@2@@std@@AEBUCurlHolder@2@@Z
	?GetExpires@Cookie@cpr@@QEBA?BV?$time_point@Usystem_clock@chrono@std@@V?$duration@_JU?$ratio@$00$0JIJGIA@@std@@@23@@chrono@std@@XZ
	?GetExpiresString@Cookie@cpr@@QEBA?BV?$basic_string@DU?$char_traits@D@std@@V?$allocator@D@2@@std@@XZ
	?GetFullRequestUrl@Session@cpr@@QEAA?AV?$basic_string@DU?$char_traits@D@std@@V?$allocator@D@2@@std@@XZ
	?GetInstance@GlobalThreadPool@cpr@@SAPEAV12@XZ
	?GetName@Cookie@cpr@@QEBA?BV?$basic_string@DU?$char_traits@D@std@@V?$allocator@D@2@@std@@XZ
	?GetPath@Cookie@cpr@@QEBA?BV?$basic_string@DU?$char_traits@D@std@@V?$allocator@D@2@@std@@XZ
	?GetSessions@MultiPerform@cpr@@QEAAAEAV?$vector@U?$pair@V?$shared_ptr@VSession@cpr@@@std@@W4HttpMethod@MultiPerform@cpr@@@std@@V?$allocator@U?$pair@V?$shared_ptr@VSession@cpr@@@std@@W4HttpMethod@MultiPerform@cpr@@@std@@@2@@std@@XZ
	?GetSessions@MultiPerform@cpr@@QEBAAEBV?$vector@U?$pair@V?$shared_ptr@VSession@cpr@@@std@@W4HttpMethod@MultiPerform@cpr@@@std@@V?$allocator@U?$pair@V?$shared_ptr@VSession@cpr@@@std@@W4HttpMethod@MultiPerform@cpr@@@std@@@2@@std@@XZ
	?GetSharedPtrFromThis@Session@cpr@@AEAA?AV?$shared_ptr@VSession@cpr@@@std@@XZ
	?GetToken@Bearer@cpr@@UEBAPEBDXZ
	?GetUnixSocketString@UnixSocket@cpr@@QEBAPEBDXZ
	?GetValue@Cookie@cpr@@QEBA?BV?$basic_string@DU?$char_traits@D@std@@V?$allocator@D@2@@std@@XZ
	?Head@MultiPerform@cpr@@QEAA?AV?$vector@VResponse@cpr@@V?$allocator@VResponse@cpr@@@std@@@std@@XZ
	?Head@Session@cpr@@QEAA?AVResponse@2@XZ
	?HeadAsync@Session@cpr@@QEAA?AV?$AsyncWrapper@VResponse@cpr@@$0A@@2@XZ
	?IsHttpsOnly@Cookie@cpr@@QEBA_NXZ
	?IsIncludingSubdomains@Cookie@cpr@@QEBA_NXZ
	?MakeDownloadRequest@MultiPerform@cpr@@AEAA?AV?$vector@VResponse@cpr@@V?$allocator@VResponse@cpr@@@std@@@std@@XZ
	?MakeRequest@MultiPerform@cpr@@AEAA?AV?$vector@VResponse@cpr@@V?$allocator@VResponse@cpr@@@std@@@std@@XZ
	?Milliseconds@Timeout@cpr@@QEBAJXZ
	?Options@MultiPerform@cpr@@QEAA?AV?$vector@VResponse@cpr@@V?$allocator@VResponse@cpr@@@std@@@std@@XZ
	?Options@Session@cpr@@QEAA?AVResponse@2@XZ
	?OptionsAsync@Session@cpr@@QEAA?AV?$AsyncWrapper@VResponse@cpr@@$0A@@2@XZ
	?Patch@MultiPerform@cpr@@QEAA?AV?$vector@VResponse@cpr@@V?$allocator@VResponse@cpr@@@std@@@std@@XZ
	?Patch@Session@cpr@@QEAA?AVResponse@2@XZ
	?PatchAsync@Session@cpr@@QEAA?AV?$AsyncWrapper@VResponse@cpr@@$0A@@2@XZ
	?Pause@ThreadPool@cpr@@QEAAHXZ
	?Perform@MultiPerform@cpr@@QEAA?AV?$vector@VResponse@cpr@@V?$allocator@VResponse@cpr@@@std@@@std@@XZ
	?Post@MultiPerform@cpr@@QEAA?AV?$vector@VResponse@cpr@@V?$allocator@VResponse@cpr@@@std@@@std@@XZ
	?Post@Session@cpr@@QEAA?AVResponse@2@XZ
	?PostAsync@Session@cpr@@QEAA?AV?$AsyncWrapper@VResponse@cpr@@$0A@@2@XZ
	?PrepareDelete@MultiPerform@cpr@@AEAAXXZ
	?PrepareDelete@Session@cpr@@QEAAXXZ
	?PrepareDownload@Session@cpr@@QEAAXAEAV?$basic_ofstream@DU?$char_traits@D@std@@@std@@@Z
	?PrepareDownload@Session@cpr@@QEAAXAEBVWriteCallback@2@@Z
	?PrepareDownloadSession@InterceptorMulti@cpr@@KAXAEAVMultiPerform@2@_KAEBVWriteCallback@2@@Z
	?PrepareDownloadSession@MultiPerform@cpr@@AEAAX_KAEAV?$basic_ofstream@DU?$char_traits@D@std@@@std@@@Z
	?PrepareDownloadSession@MultiPerform@cpr@@AEAAX_KAEBVWriteCallback@2@@Z
	?PrepareGet@MultiPerform@cpr@@AEAAXXZ
	?PrepareGet@Session@cpr@@QEAAXXZ
	?PrepareHead@MultiPerform@cpr@@AEAAXXZ
	?PrepareHead@Session@cpr@@QEAAXXZ
	?PrepareOptions@MultiPerform@cpr@@AEAAXXZ
	?PrepareOptions@Session@cpr@@QEAAXXZ
	?PreparePatch@MultiPerform@cpr@@AEAAXXZ
	?PreparePatch@Session@cpr@@QEAAXXZ
	?PreparePost@MultiPerform@cpr@@AEAAXXZ
	?PreparePost@Session@cpr@@QEAAXXZ
	?PreparePut@MultiPerform@cpr@@AEAAXXZ
	?PreparePut@Session@cpr@@QEAAXXZ
	?PrepareSessions@MultiPerform@cpr@@AEAAXXZ
	?Put@MultiPerform@cpr@@QEAA?AV?$vector@VResponse@cpr@@V?$allocator@VResponse@cpr@@@std@@@std@@XZ
	?Put@Session@cpr@@QEAA?AVResponse@2@XZ
	?PutAsync@Session@cpr@@QEAA?AV?$AsyncWrapper@VResponse@cpr@@$0A@@2@XZ
	?ReadMultiInfo@MultiPerform@cpr@@AEAA?AV?$vector@VResponse@cpr@@V?$allocator@VResponse@cpr@@@std@@@std@@$$QEAV?$function@$$A6A?AVResponse@cpr@@AEAVSession@2@W4CURLcode@@@Z@4@@Z
	?RemoveSession@MultiPerform@cpr@@QEAAXAEBV?$shared_ptr@VSession@cpr@@@std@@@Z
	?ResponseStringReserve@Session@cpr@@QEAAX_K@Z
	?Resume@ThreadPool@cpr@@QEAAHXZ
	?SetAcceptEncoding@Session@cpr@@QEAAX$$QEAVAcceptEncoding@2@@Z
	?SetAcceptEncoding@Session@cpr@@QEAAXAEBVAcceptEncoding@2@@Z
	?SetAuth@Session@cpr@@QEAAXAEBVAuthentication@2@@Z
	?SetBearer@Session@cpr@@QEAAXAEBVBearer@2@@Z
	?SetBody@Session@cpr@@QEAAX$$QEAVBody@2@@Z
	?SetBody@Session@cpr@@QEAAXAEBVBody@2@@Z
	?SetCancellationParam@Session@cpr@@QEAAXV?$shared_ptr@U?$atomic@_N@std@@@std@@@Z
	?SetConnectTimeout@Session@cpr@@QEAAXAEBVConnectTimeout@2@@Z
	?SetCookies@Session@cpr@@QEAAXAEBVCookies@2@@Z
	?SetDebugCallback@Session@cpr@@QEAAXAEBVDebugCallback@2@@Z
	?SetHeader@Session@cpr@@QEAAXAEBV?$map@V?$basic_string@DU?$char_traits@D@std@@V?$allocator@D@2@@std@@V12@UCaseInsensitiveCompare@cpr@@V?$allocator@U?$pair@$$CBV?$basic_string@DU?$char_traits@D@std@@V?$allocator@D@2@@std@@V12@@std@@@2@@std@@@Z
	?SetHeaderCallback@Session@cpr@@QEAAXAEBVHeaderCallback@2@@Z
	?SetHeaderInternal@Session@cpr@@AEAAXXZ
	?SetHttpMethod@MultiPerform@cpr@@AEAAXW4HttpMethod@12@@Z
	?SetHttpVersion@Session@cpr@@QEAAXAEBVHttpVersion@2@@Z
	?SetInterface@Session@cpr@@QEAAXAEBVInterface@2@@Z
	?SetLimitRate@Session@cpr@@QEAAXAEBVLimitRate@2@@Z
	?SetLocalPort@Session@cpr@@QEAAXAEBVLocalPort@2@@Z
	?SetLocalPortRange@Session@cpr@@QEAAXAEBVLocalPortRange@2@@Z
	?SetLowSpeed@Session@cpr@@QEAAXAEBVLowSpeed@2@@Z
	?SetMultiRange@Session@cpr@@QEAAXAEBVMultiRange@2@@Z
	?SetMultipart@Session@cpr@@QEAAX$$QEAVMultipart@2@@Z
	?SetMultipart@Session@cpr@@QEAAXAEBVMultipart@2@@Z
	?SetOption@Session@cpr@@QEAAX$$QEAVAcceptEncoding@2@@Z
	?SetOption@Session@cpr@@QEAAX$$QEAVBody@2@@Z
	?SetOption@Session@cpr@@QEAAX$$QEAVMultipart@2@@Z
	?SetOption@Session@cpr@@QEAAX$$QEAVParameters@2@@Z
	?SetOption@Session@cpr@@QEAAX$$QEAVPayload@2@@Z
	?SetOption@Session@cpr@@QEAAX$$QEAVProxies@2@@Z
	?SetOption@Session@cpr@@QEAAX$$QEAVProxyAuthentication@2@@Z
	?SetOption@Session@cpr@@QEAAXAEBUSslOptions@2@@Z
	?SetOption@Session@cpr@@QEAAXAEBV?$map@V?$basic_string@DU?$char_traits@D@std@@V?$allocator@D@2@@std@@V12@UCaseInsensitiveCompare@cpr@@V?$allocator@U?$pair@$$CBV?$basic_string@DU?$char_traits@D@std@@V?$allocator@D@2@@std@@V12@@std@@@2@@std@@@Z
	?SetOption@Session@cpr@@QEAAXAEBV?$vector@VResolve@cpr@@V?$allocator@VResolve@cpr@@@std@@@std@@@Z
	?SetOption@Session@cpr@@QEAAXAEBVAcceptEncoding@2@@Z
	?SetOption@Session@cpr@@QEAAXAEBVAuthentication@2@@Z
	?SetOption@Session@cpr@@QEAAXAEBVBearer@2@@Z
	?SetOption@Session@cpr@@QEAAXAEBVBody@2@@Z
	?SetOption@Session@cpr@@QEAAXAEBVConnectTimeout@2@@Z
	?SetOption@Session@cpr@@QEAAXAEBVCookies@2@@Z
	?SetOption@Session@cpr@@QEAAXAEBVDebugCallback@2@@Z
	?SetOption@Session@cpr@@QEAAXAEBVHeaderCallback@2@@Z
	?SetOption@Session@cpr@@QEAAXAEBVHttpVersion@2@@Z
	?SetOption@Session@cpr@@QEAAXAEBVInterface@2@@Z
	?SetOption@Session@cpr@@QEAAXAEBVLimitRate@2@@Z
	?SetOption@Session@cpr@@QEAAXAEBVLocalPort@2@@Z
	?SetOption@Session@cpr@@QEAAXAEBVLocalPortRange@2@@Z
	?SetOption@Session@cpr@@QEAAXAEBVLowSpeed@2@@Z
	?SetOption@Session@cpr@@QEAAXAEBVMultiRange@2@@Z
	?SetOption@Session@cpr@@QEAAXAEBVMultipart@2@@Z
	?SetOption@Session@cpr@@QEAAXAEBVParameters@2@@Z
	?SetOption@Session@cpr@@QEAAXAEBVPayload@2@@Z
	?SetOption@Session@cpr@@QEAAXAEBVProgressCallback@2@@Z
	?SetOption@Session@cpr@@QEAAXAEBVProxies@2@@Z
	?SetOption@Session@cpr@@QEAAXAEBVProxyAuthentication@2@@Z
	?SetOption@Session@cpr@@QEAAXAEBVRange@2@@Z
	?SetOption@Session@cpr@@QEAAXAEBVReadCallback@2@@Z
	?SetOption@Session@cpr@@QEAAXAEBVRedirect@2@@Z
	?SetOption@Session@cpr@@QEAAXAEBVReserveSize@2@@Z
	?SetOption@Session@cpr@@QEAAXAEBVResolve@2@@Z
	?SetOption@Session@cpr@@QEAAXAEBVTimeout@2@@Z
	?SetOption@Session@cpr@@QEAAXAEBVUnixSocket@2@@Z
	?SetOption@Session@cpr@@QEAAXAEBVUrl@2@@Z
	?SetOption@Session@cpr@@QEAAXAEBVUserAgent@2@@Z
	?SetOption@Session@cpr@@QEAAXAEBVVerbose@2@@Z
	?SetOption@Session@cpr@@QEAAXAEBVVerifySsl@2@@Z
	?SetOption@Session@cpr@@QEAAXAEBVWriteCallback@2@@Z
	?SetParameters@Session@cpr@@QEAAX$$QEAVParameters@2@@Z
	?SetParameters@Session@cpr@@QEAAXAEBVParameters@2@@Z
	?SetPayload@Session@cpr@@QEAAX$$QEAVPayload@2@@Z
	?SetPayload@Session@cpr@@QEAAXAEBVPayload@2@@Z
	?SetProgressCallback@CancellationCallback@cpr@@QEAAXAEAVProgressCallback@2@@Z
	?SetProgressCallback@Session@cpr@@QEAAXAEBVProgressCallback@2@@Z
	?SetProxies@Session@cpr@@QEAAX$$QEAVProxies@2@@Z
	?SetProxies@Session@cpr@@QEAAXAEBVProxies@2@@Z
	?SetProxyAuth@Session@cpr@@QEAAX$$QEAVProxyAuthentication@2@@Z
	?SetProxyAuth@Session@cpr@@QEAAXAEBVProxyAuthentication@2@@Z
	?SetRange@Session@cpr@@QEAAXAEBVRange@2@@Z
	?SetReadCallback@Session@cpr@@QEAAXAEBVReadCallback@2@@Z
	?SetRedirect@Session@cpr@@QEAAXAEBVRedirect@2@@Z
	?SetReserveSize@Session@cpr@@QEAAXAEBVReserveSize@2@@Z
	?SetResolve@Session@cpr@@QEAAXAEBVResolve@2@@Z
	?SetResolves@Session@cpr@@QEAAXAEBV?$vector@VResolve@cpr@@V?$allocator@VResolve@cpr@@@std@@@std@@@Z
	?SetSslOptions@Session@cpr@@QEAAXAEBUSslOptions@2@@Z
	?SetTimeout@Session@cpr@@QEAAXAEBVTimeout@2@@Z
	?SetUnixSocket@Session@cpr@@QEAAXAEBVUnixSocket@2@@Z
	?SetUrl@Session@cpr@@QEAAXAEBVUrl@2@@Z
	?SetUserAgent@Session@cpr@@QEAAXAEBVUserAgent@2@@Z
	?SetVerbose@Session@cpr@@QEAAXAEBVVerbose@2@@Z
	?SetVerifySsl@Session@cpr@@QEAAXAEBVVerifySsl@2@@Z
	?SetWriteCallback@Session@cpr@@QEAAXAEBVWriteCallback@2@@Z
	?Start@ThreadPool@cpr@@QEAAH_K@Z
	?Stop@ThreadPool@cpr@@QEAAHXZ
	?UpdateHeader@Session@cpr@@QEAAXAEBV?$map@V?$basic_string@DU?$char_traits@D@std@@V?$allocator@D@2@@std@@V12@UCaseInsensitiveCompare@cpr@@V?$allocator@U?$pair@$$CBV?$basic_string@DU?$char_traits@D@std@@V?$allocator@D@2@@std@@V12@@std@@@2@@std@@@Z
	?Wait@ThreadPool@cpr@@QEAAHXZ
	?_Assign_grow@?$_Hash_vec@V?$allocator@V?$_List_unchecked_const_iterator@V?$_List_val@U?$_List_simple_types@V?$basic_string@DU?$char_traits@D@std@@V?$allocator@D@2@@std@@@std@@@std@@U_Iterator_base0@2@@std@@@std@@@std@@QEAAX_KV?$_List_unchecked_const_iterator@V?$_List_val@U?$_List_simple_types@V?$basic_string@DU?$char_traits@D@std@@V?$allocator@D@2@@std@@@std@@@std@@U_Iterator_base0@2@@2@@Z
	?_Buy_raw@?$vector@UFile@cpr@@V?$allocator@UFile@cpr@@@std@@@std@@AEAAX_K@Z
	?_Buy_raw@?$vector@V?$basic_string@DU?$char_traits@D@std@@V?$allocator@D@2@@std@@V?$allocator@V?$basic_string@DU?$char_traits@D@std@@V?$allocator@D@2@@std@@@2@@std@@AEAAX_K@Z
	?_Buy_raw@?$vector@VCookie@cpr@@V?$allocator@VCookie@cpr@@@std@@@std@@AEAAX_K@Z
	?_Call_immediate@?$_Packaged_state@$$A6A?AVResponse@cpr@@XZ@std@@QEAAXXZ
	?_Change_array@?$vector@UPair@cpr@@V?$allocator@UPair@cpr@@@std@@@std@@AEAAXQEAUPair@cpr@@_K1@Z
	?_Change_array@?$vector@UParameter@cpr@@V?$allocator@UParameter@cpr@@@std@@@std@@AEAAXQEAUParameter@cpr@@_K1@Z
	?_Change_array@?$vector@VResponse@cpr@@V?$allocator@VResponse@cpr@@@std@@@std@@AEAAXQEAVResponse@cpr@@_K1@Z
	?_Delete_this@?$_Ref_count@UCurlHolder@cpr@@@std@@EEAAXXZ
	?_Delete_this@?$_Ref_count@Vthread@std@@@std@@EEAAXXZ
	?_Delete_this@?$_Ref_count_obj2@V?$packaged_task@$$A6A?AVResponse@cpr@@XZ@std@@@std@@EEAAXXZ
	?_Destroy@?$_Ref_count@UCurlHolder@cpr@@@std@@EEAAXXZ
	?_Destroy@?$_Ref_count@Vthread@std@@@std@@EEAAXXZ
	?_Destroy@?$_Ref_count_obj2@V?$packaged_task@$$A6A?AVResponse@cpr@@XZ@std@@@std@@EEAAXXZ
	?_Destroy@?$vector@U?$pair@V?$shared_ptr@VSession@cpr@@@std@@W4HttpMethod@MultiPerform@cpr@@@std@@V?$allocator@U?$pair@V?$shared_ptr@VSession@cpr@@@std@@W4HttpMethod@MultiPerform@cpr@@@std@@@2@@std@@AEAAXPEAU?$pair@V?$shared_ptr@VSession@cpr@@@std@@W4HttpMethod@MultiPerform@cpr@@@2@0@Z
	?_Destroy@?$vector@UFile@cpr@@V?$allocator@UFile@cpr@@@std@@@std@@AEAAXPEAUFile@cpr@@0@Z
	?_Destroy@?$vector@UPair@cpr@@V?$allocator@UPair@cpr@@@std@@@std@@AEAAXPEAUPair@cpr@@0@Z
	?_Destroy@?$vector@UParameter@cpr@@V?$allocator@UParameter@cpr@@@std@@@std@@AEAAXPEAUParameter@cpr@@0@Z
	?_Destroy@?$vector@V?$basic_string@DU?$char_traits@D@std@@V?$allocator@D@2@@std@@V?$allocator@V?$basic_string@DU?$char_traits@D@std@@V?$allocator@D@2@@std@@@2@@std@@AEAAXPEAV?$basic_string@DU?$char_traits@D@std@@V?$allocator@D@2@@2@0@Z
	?_Destroy@?$vector@VCertInfo@cpr@@V?$allocator@VCertInfo@cpr@@@std@@@std@@AEAAXPEAVCertInfo@cpr@@0@Z
	?_Destroy@?$vector@VCookie@cpr@@V?$allocator@VCookie@cpr@@@std@@@std@@AEAAXPEAVCookie@cpr@@0@Z
	?_Destroy@?$vector@VResponse@cpr@@V?$allocator@VResponse@cpr@@@std@@@std@@AEAAXPEAVResponse@cpr@@0@Z
	?_Do_notify@?$_Associated_state@VResponse@cpr@@@std@@EEAAXPEAV?$unique_lock@Vmutex@std@@@2@_N@Z
	?_Forced_rehash@?$_Hash@V?$_Uset_traits@V?$basic_string@DU?$char_traits@D@std@@V?$allocator@D@2@@std@@V?$_Uhash_compare@V?$basic_string@DU?$char_traits@D@std@@V?$allocator@D@2@@std@@U?$hash@V?$basic_string@DU?$char_traits@D@std@@V?$allocator@D@2@@std@@@2@U?$equal_to@V?$basic_string@DU?$char_traits@D@std@@V?$allocator@D@2@@std@@@2@@2@V?$allocator@V?$basic_string@DU?$char_traits@D@std@@V?$allocator@D@2@@std@@@2@$0A@@std@@@std@@IEAAX_K@Z
	?_Get_deleter@_Ref_count_base@std@@UEBAPEAXAEBVtype_info@@@Z
	?_Get_value@?$_Associated_state@VResponse@cpr@@@std@@UEAAAEAVResponse@cpr@@_N@Z
	?_Getal@?$_Tree@V?$_Tmap_traits@V?$basic_string@DU?$char_traits@D@std@@V?$allocator@D@2@@std@@V12@U?$less@V?$basic_string@DU?$char_traits@D@std@@V?$allocator@D@2@@std@@@2@V?$allocator@U?$pair@$$CBV?$basic_string@DU?$char_traits@D@std@@V?$allocator@D@2@@std@@V12@@std@@@2@$0A@@std@@@std@@IEAAAEAV?$allocator@U?$_Tree_node@U?$pair@$$CBV?$basic_string@DU?$char_traits@D@std@@V?$allocator@D@2@@std@@V12@@std@@PEAX@std@@@2@XZ
	?_Getal@?$_Tree@V?$_Tmap_traits@V?$basic_string@DU?$char_traits@D@std@@V?$allocator@D@2@@std@@V12@UCaseInsensitiveCompare@cpr@@V?$allocator@U?$pair@$$CBV?$basic_string@DU?$char_traits@D@std@@V?$allocator@D@2@@std@@V12@@std@@@2@$0A@@std@@@std@@IEAAAEAV?$allocator@U?$_Tree_node@U?$pair@$$CBV?$basic_string@DU?$char_traits@D@std@@V?$allocator@D@2@@std@@V12@@std@@PEAX@std@@@2@XZ
	?_Getal@?$_Tree@V?$_Tmap_traits@V?$basic_string@DU?$char_traits@D@std@@V?$allocator@D@2@@std@@VEncodedAuthentication@cpr@@U?$less@V?$basic_string@DU?$char_traits@D@std@@V?$allocator@D@2@@std@@@2@V?$allocator@U?$pair@$$CBV?$basic_string@DU?$char_traits@D@std@@V?$allocator@D@2@@std@@VEncodedAuthentication@cpr@@@std@@@2@$0A@@std@@@std@@IEAAAEAV?$allocator@U?$_Tree_node@U?$pair@$$CBV?$basic_string@DU?$char_traits@D@std@@V?$allocator@D@2@@std@@VEncodedAuthentication@cpr@@@std@@PEAX@std@@@2@XZ
	?_Getal@?$_Tree@V?$_Tset_traits@GU?$less@G@std@@V?$allocator@G@2@$0A@@std@@@std@@IEAAAEAV?$allocator@U?$_Tree_node@GPEAX@std@@@2@XZ
	?_Growmap@?$deque@V?$function@$$A6AXXZ@std@@V?$allocator@V?$function@$$A6AXXZ@std@@@2@@std@@AEAAX_K@Z
	?_Growmap@?$deque@V?$shared_ptr@VInterceptor@cpr@@@std@@V?$allocator@V?$shared_ptr@VInterceptor@cpr@@@std@@@2@@std@@AEAAX_K@Z
	?_Growmap@?$deque@V?$shared_ptr@VInterceptorMulti@cpr@@@std@@V?$allocator@V?$shared_ptr@VInterceptorMulti@cpr@@@std@@@2@@std@@AEAAX_K@Z
	?_Has_deferred_function@?$_Associated_state@VResponse@cpr@@@std@@EEBA_NXZ
	?_Insert_node@?$_Tree_val@U?$_Tree_simple_types@U?$pair@$$CBV?$basic_string@DU?$char_traits@D@std@@V?$allocator@D@2@@std@@V12@@std@@@std@@@std@@QEAAPEAU?$_Tree_node@U?$pair@$$CBV?$basic_string@DU?$char_traits@D@std@@V?$allocator@D@2@@std@@V12@@std@@PEAX@2@U?$_Tree_id@PEAU?$_Tree_node@U?$pair@$$CBV?$basic_string@DU?$char_traits@D@std@@V?$allocator@D@2@@std@@V12@@std@@PEAX@std@@@2@QEAU32@@Z
	?_Insert_node@?$_Tree_val@U?$_Tree_simple_types@U?$pair@$$CBV?$basic_string@DU?$char_traits@D@std@@V?$allocator@D@2@@std@@VEncodedAuthentication@cpr@@@std@@@std@@@std@@QEAAPEAU?$_Tree_node@U?$pair@$$CBV?$basic_string@DU?$char_traits@D@std@@V?$allocator@D@2@@std@@VEncodedAuthentication@cpr@@@std@@PEAX@2@U?$_Tree_id@PEAU?$_Tree_node@U?$pair@$$CBV?$basic_string@DU?$char_traits@D@std@@V?$allocator@D@2@@std@@VEncodedAuthentication@cpr@@@std@@PEAX@std@@@2@QEAU32@@Z
	?_Insert_node@?$_Tree_val@U?$_Tree_simple_types@U?$pair@$$CBW4AcceptEncodingMethods@cpr@@V?$basic_string@DU?$char_traits@D@std@@V?$allocator@D@2@@std@@@std@@@std@@@std@@QEAAPEAU?$_Tree_node@U?$pair@$$CBW4AcceptEncodingMethods@cpr@@V?$basic_string@DU?$char_traits@D@std@@V?$allocator@D@2@@std@@@std@@PEAX@2@U?$_Tree_id@PEAU?$_Tree_node@U?$pair@$$CBW4AcceptEncodingMethods@cpr@@V?$basic_string@DU?$char_traits@D@std@@V?$allocator@D@2@@std@@@std@@PEAX@std@@@2@QEAU32@@Z
	?_Maklocwcs@std@@YAPEA_WPEB_W@Z
	?_Rehash_for_1@?$_Hash@V?$_Uset_traits@V?$basic_string@DU?$char_traits@D@std@@V?$allocator@D@2@@std@@V?$_Uhash_compare@V?$basic_string@DU?$char_traits@D@std@@V?$allocator@D@2@@std@@U?$hash@V?$basic_string@DU?$char_traits@D@std@@V?$allocator@D@2@@std@@@2@U?$equal_to@V?$basic_string@DU?$char_traits@D@std@@V?$allocator@D@2@@std@@@2@@2@V?$allocator@V?$basic_string@DU?$char_traits@D@std@@V?$allocator@D@2@@std@@@2@$0A@@std@@@std@@IEAAXXZ
	?_Run_deferred_function@?$_Associated_state@VResponse@cpr@@@std@@EEAAXAEAV?$unique_lock@Vmutex@std@@@2@@Z
	?_Set_exception@?$_Associated_state@VResponse@cpr@@@std@@QEAAXVexception_ptr@2@_N@Z
	?_Throw_bad_array_new_length@std@@YAXXZ
	?_Throw_bad_cast@std@@YAXXZ
	?_Throw_bad_weak_ptr@std@@YAXXZ
	?_Throw_tree_length_error@std@@YAXXZ
	?_Tidy@?$vector@UFile@cpr@@V?$allocator@UFile@cpr@@@std@@@std@@AEAAXXZ
	?_Tidy@?$vector@UPair@cpr@@V?$allocator@UPair@cpr@@@std@@@std@@AEAAXXZ
	?_Tidy@?$vector@UParameter@cpr@@V?$allocator@UParameter@cpr@@@std@@@std@@AEAAXXZ
	?_Tidy@?$vector@UPart@cpr@@V?$allocator@UPart@cpr@@@std@@@std@@AEAAXXZ
	?_Tidy@?$vector@V?$basic_string@DU?$char_traits@D@std@@V?$allocator@D@2@@std@@V?$allocator@V?$basic_string@DU?$char_traits@D@std@@V?$allocator@D@2@@std@@@2@@std@@AEAAXXZ
	?_Tidy@?$vector@VCookie@cpr@@V?$allocator@VCookie@cpr@@@std@@@std@@AEAAXXZ
	?_Tidy@?$vector@VResolve@cpr@@V?$allocator@VResolve@cpr@@@std@@@std@@AEAAXXZ
	?_Umove@?$vector@VCertInfo@cpr@@V?$allocator@VCertInfo@cpr@@@std@@@std@@AEAAPEAVCertInfo@cpr@@PEAV34@00@Z
	?_Unchecked_erase@?$_Hash@V?$_Uset_traits@V?$basic_string@DU?$char_traits@D@std@@V?$allocator@D@2@@std@@V?$_Uhash_compare@V?$basic_string@DU?$char_traits@D@std@@V?$allocator@D@2@@std@@U?$hash@V?$basic_string@DU?$char_traits@D@std@@V?$allocator@D@2@@std@@@2@U?$equal_to@V?$basic_string@DU?$char_traits@D@std@@V?$allocator@D@2@@std@@@2@@2@V?$allocator@V?$basic_string@DU?$char_traits@D@std@@V?$allocator@D@2@@std@@@2@$0A@@std@@@std@@AEAAPEAU?$_List_node@V?$basic_string@DU?$char_traits@D@std@@V?$allocator@D@2@@std@@PEAX@2@PEAU32@QEAU32@@Z
	?_Wait@?$_Associated_state@VResponse@cpr@@@std@@UEAAXXZ
	?_Xlen@?$deque@V?$function@$$A6AXXZ@std@@V?$allocator@V?$function@$$A6AXXZ@std@@@2@@std@@AEBAXXZ
	?_Xlen@?$deque@V?$shared_ptr@VInterceptor@cpr@@@std@@V?$allocator@V?$shared_ptr@VInterceptor@cpr@@@std@@@2@@std@@AEBAXXZ
	?_Xlen@?$deque@V?$shared_ptr@VInterceptorMulti@cpr@@@std@@V?$allocator@V?$shared_ptr@VInterceptorMulti@cpr@@@std@@@2@@std@@AEBAXXZ
	?_Xlen_string@std@@YAXXZ
	?_Xlength@?$vector@U?$pair@V?$shared_ptr@VSession@cpr@@@std@@W4HttpMethod@MultiPerform@cpr@@@std@@V?$allocator@U?$pair@V?$shared_ptr@VSession@cpr@@@std@@W4HttpMethod@MultiPerform@cpr@@@std@@@2@@std@@CAXXZ
	?_Xlength@?$vector@UFile@cpr@@V?$allocator@UFile@cpr@@@std@@@std@@CAXXZ
	?_Xlength@?$vector@UPair@cpr@@V?$allocator@UPair@cpr@@@std@@@std@@CAXXZ
	?_Xlength@?$vector@UParameter@cpr@@V?$allocator@UParameter@cpr@@@std@@@std@@CAXXZ
	?_Xlength@?$vector@UPart@cpr@@V?$allocator@UPart@cpr@@@std@@@std@@CAXXZ
	?_Xlength@?$vector@V?$basic_string@DU?$char_traits@D@std@@V?$allocator@D@2@@std@@V?$allocator@V?$basic_string@DU?$char_traits@D@std@@V?$allocator@D@2@@std@@@2@@std@@CAXXZ
	?_Xlength@?$vector@VCertInfo@cpr@@V?$allocator@VCertInfo@cpr@@@std@@@std@@CAXXZ
	?_Xlength@?$vector@VCookie@cpr@@V?$allocator@VCookie@cpr@@@std@@@std@@CAXXZ
	?_Xlength@?$vector@VResponse@cpr@@V?$allocator@VResponse@cpr@@@std@@@std@@CAXXZ
	?_Xran@?$_String_val@U?$_Simple_types@D@std@@@std@@SAXXZ
	?_Xrange@?$vector@V?$basic_string@DU?$char_traits@D@std@@V?$allocator@D@2@@std@@V?$allocator@V?$basic_string@DU?$char_traits@D@std@@V?$allocator@D@2@@std@@@2@@std@@CAXXZ
	?allocate@?$allocator@D@std@@QEAAPEAD_K@Z
	?allocate@?$allocator@UFile@cpr@@@std@@QEAAPEAUFile@cpr@@_K@Z
	?allocate@?$allocator@UPair@cpr@@@std@@QEAAPEAUPair@cpr@@_K@Z
	?allocate@?$allocator@UParameter@cpr@@@std@@QEAAPEAUParameter@cpr@@_K@Z
	?allocate@?$allocator@V?$basic_string@DU?$char_traits@D@std@@V?$allocator@D@2@@std@@@std@@QEAAPEAV?$basic_string@DU?$char_traits@D@std@@V?$allocator@D@2@@2@_K@Z
	?allocate@?$allocator@VCookie@cpr@@@std@@QEAAPEAVCookie@cpr@@_K@Z
	?allocate@?$allocator@VResponse@cpr@@@std@@QEAAPEAVResponse@cpr@@_K@Z
	?any@cpr@@YA_NW4PostRedirectFlags@1@@Z
	?append@?$basic_string@DU?$char_traits@D@std@@V?$allocator@D@2@@std@@QEAAAEAV12@QEBD_K@Z
	?assign@?$basic_string@DU?$char_traits@D@std@@V?$allocator@D@2@@std@@QEAAAEAV12@QEBD_K@Z
	?begin@CertInfo@cpr@@QEAA?AV?$_Vector_iterator@V?$_Vector_val@U?$_Simple_types@V?$basic_string@DU?$char_traits@D@std@@V?$allocator@D@2@@std@@@std@@@std@@@std@@XZ
	?begin@CertInfo@cpr@@QEBA?AV?$_Vector_const_iterator@V?$_Vector_val@U?$_Simple_types@V?$basic_string@DU?$char_traits@D@std@@V?$allocator@D@2@@std@@@std@@@std@@@std@@XZ
	?begin@Cookies@cpr@@QEAA?AV?$_Vector_iterator@V?$_Vector_val@U?$_Simple_types@VCookie@cpr@@@std@@@std@@@std@@XZ
	?begin@Cookies@cpr@@QEBA?AV?$_Vector_const_iterator@V?$_Vector_val@U?$_Simple_types@VCookie@cpr@@@std@@@std@@@std@@XZ
	?begin@Files@cpr@@QEAA?AV?$_Vector_iterator@V?$_Vector_val@U?$_Simple_types@UFile@cpr@@@std@@@std@@@std@@XZ
	?begin@Files@cpr@@QEBA?AV?$_Vector_const_iterator@V?$_Vector_val@U?$_Simple_types@UFile@cpr@@@std@@@std@@@std@@XZ
	?cbegin@CertInfo@cpr@@QEBA?AV?$_Vector_const_iterator@V?$_Vector_val@U?$_Simple_types@V?$basic_string@DU?$char_traits@D@std@@V?$allocator@D@2@@std@@@std@@@std@@@std@@XZ
	?cbegin@Cookies@cpr@@QEBA?AV?$_Vector_const_iterator@V?$_Vector_val@U?$_Simple_types@VCookie@cpr@@@std@@@std@@@std@@XZ
	?cbegin@Files@cpr@@QEBA?AV?$_Vector_const_iterator@V?$_Vector_val@U?$_Simple_types@UFile@cpr@@@std@@@std@@@std@@XZ
	?cend@CertInfo@cpr@@QEBA?AV?$_Vector_const_iterator@V?$_Vector_val@U?$_Simple_types@V?$basic_string@DU?$char_traits@D@std@@V?$allocator@D@2@@std@@@std@@@std@@@std@@XZ
	?cend@Cookies@cpr@@QEBA?AV?$_Vector_const_iterator@V?$_Vector_val@U?$_Simple_types@VCookie@cpr@@@std@@@std@@@std@@XZ
	?cend@Files@cpr@@QEBA?AV?$_Vector_const_iterator@V?$_Vector_val@U?$_Simple_types@UFile@cpr@@@std@@@std@@@std@@XZ
	?clear@?$_Hash@V?$_Uset_traits@V?$basic_string@DU?$char_traits@D@std@@V?$allocator@D@2@@std@@V?$_Uhash_compare@V?$basic_string@DU?$char_traits@D@std@@V?$allocator@D@2@@std@@U?$hash@V?$basic_string@DU?$char_traits@D@std@@V?$allocator@D@2@@std@@@2@U?$equal_to@V?$basic_string@DU?$char_traits@D@std@@V?$allocator@D@2@@std@@@2@@2@V?$allocator@V?$basic_string@DU?$char_traits@D@std@@V?$allocator@D@2@@std@@@2@$0A@@std@@@std@@QEAAXXZ
	?count@?$duration@_JU?$ratio@$00$0DOI@@std@@@chrono@std@@QEBA_JXZ
	?curl_easy_init_mutex_@CurlHolder@cpr@@CAAEAVmutex@std@@XZ
	?deallocate@?$allocator@D@std@@QEAAXQEAD_K@Z
	?deallocate@?$allocator@U?$pair@V?$shared_ptr@VSession@cpr@@@std@@W4HttpMethod@MultiPerform@cpr@@@std@@@std@@QEAAXQEAU?$pair@V?$shared_ptr@VSession@cpr@@@std@@W4HttpMethod@MultiPerform@cpr@@@2@_K@Z
	?deallocate@?$allocator@UFile@cpr@@@std@@QEAAXQEAUFile@cpr@@_K@Z
	?deallocate@?$allocator@UPair@cpr@@@std@@QEAAXQEAUPair@cpr@@_K@Z
	?deallocate@?$allocator@UParameter@cpr@@@std@@QEAAXQEAUParameter@cpr@@_K@Z
	?deallocate@?$allocator@V?$basic_string@DU?$char_traits@D@std@@V?$allocator@D@2@@std@@@std@@QEAAXQEAV?$basic_string@DU?$char_traits@D@std@@V?$allocator@D@2@@2@_K@Z
	?deallocate@?$allocator@VCertInfo@cpr@@@std@@QEAAXQEAVCertInfo@cpr@@_K@Z
	?deallocate@?$allocator@VCookie@cpr@@@std@@QEAAXQEAVCookie@cpr@@_K@Z
	?deallocate@?$allocator@VResponse@cpr@@@std@@QEAAXQEAVResponse@cpr@@_K@Z
	?debugUserFunction@util@cpr@@YAHPEAXW4curl_infotype@@PEAD_KPEBVDebugCallback@2@@Z
	?default_error_condition@error_category@std@@UEBA?AVerror_condition@2@H@Z
	?disabled@AcceptEncoding@cpr@@QEBA_NXZ
	?emplace_back@CertInfo@cpr@@QEAAXAEBV?$basic_string@DU?$char_traits@D@std@@V?$allocator@D@2@@std@@@Z
	?emplace_back@Cookies@cpr@@QEAAXAEBVCookie@2@@Z
	?emplace_back@Files@cpr@@QEAAXAEBUFile@2@@Z
	?empty@AcceptEncoding@cpr@@QEBA_NXZ
	?end@CertInfo@cpr@@QEAA?AV?$_Vector_iterator@V?$_Vector_val@U?$_Simple_types@V?$basic_string@DU?$char_traits@D@std@@V?$allocator@D@2@@std@@@std@@@std@@@std@@XZ
	?end@CertInfo@cpr@@QEBA?AV?$_Vector_const_iterator@V?$_Vector_val@U?$_Simple_types@V?$basic_string@DU?$char_traits@D@std@@V?$allocator@D@2@@std@@@std@@@std@@@std@@XZ
	?end@Cookies@cpr@@QEAA?AV?$_Vector_iterator@V?$_Vector_val@U?$_Simple_types@VCookie@cpr@@@std@@@std@@@std@@XZ
	?end@Cookies@cpr@@QEBA?AV?$_Vector_const_iterator@V?$_Vector_val@U?$_Simple_types@VCookie@cpr@@@std@@@std@@@std@@XZ
	?end@Files@cpr@@QEAA?AV?$_Vector_iterator@V?$_Vector_val@U?$_Simple_types@UFile@cpr@@@std@@@std@@@std@@XZ
	?end@Files@cpr@@QEBA?AV?$_Vector_const_iterator@V?$_Vector_val@U?$_Simple_types@UFile@cpr@@@std@@@std@@@std@@XZ
	?equivalent@error_category@std@@UEBA_NAEBVerror_code@2@H@Z
	?equivalent@error_category@std@@UEBA_NHAEBVerror_condition@2@@Z
	?find_first_of@?$basic_string@DU?$char_traits@D@std@@V?$allocator@D@2@@std@@QEBA_KQEBD_K@Z
	?getErrorCodeForCurlError@Error@cpr@@CA?AW4ErrorCode@2@H@Z
	?getString@AcceptEncoding@cpr@@QEBA?BV?$basic_string@DU?$char_traits@D@std@@V?$allocator@D@2@@std@@XZ
	?get_future@?$packaged_task@$$A6A?AVResponse@cpr@@XZ@std@@QEAA?AV?$future@VResponse@cpr@@@2@XZ
	?has@Proxies@cpr@@QEBA_NAEBV?$basic_string@DU?$char_traits@D@std@@V?$allocator@D@2@@std@@@Z
	?has@ProxyAuthentication@cpr@@QEBA_NAEBV?$basic_string@DU?$char_traits@D@std@@V?$allocator@D@2@@std@@@Z
	?headerUserFunction@util@cpr@@YA_KPEAD_K1PEBVHeaderCallback@2@@Z
	?intercept@MultiPerform@cpr@@AEAA?AV?$vector@VResponse@cpr@@V?$allocator@VResponse@cpr@@@std@@@std@@XZ
	?intercept@Session@cpr@@AEAA?AVResponse@2@XZ
	?isTrue@util@cpr@@YA_NAEBV?$basic_string@DU?$char_traits@D@std@@V?$allocator@D@2@@std@@@Z
	?makeDownloadRequest@Session@cpr@@AEAA?AVResponse@2@XZ
	?makeRequest@Session@cpr@@AEAA?AVResponse@2@XZ
	?make_error_code@std@@YA?AVerror_code@1@W4future_errc@1@@Z
	?message@_Future_error_category2@std@@UEBA?AV?$basic_string@DU?$char_traits@D@std@@V?$allocator@D@2@@2@H@Z
	?name@_Future_error_category2@std@@UEBAPEBDXZ
	?overflow@?$basic_stringbuf@DU?$char_traits@D@std@@V?$allocator@D@2@@std@@MEAAHH@Z
	?parseCookies@util@cpr@@YA?AVCookies@2@PEAUcurl_slist@@@Z
	?parseHeader@util@cpr@@YA?AV?$map@V?$basic_string@DU?$char_traits@D@std@@V?$allocator@D@2@@std@@V12@UCaseInsensitiveCompare@cpr@@V?$allocator@U?$pair@$$CBV?$basic_string@DU?$char_traits@D@std@@V?$allocator@D@2@@std@@V12@@std@@@2@@std@@AEBV?$basic_string@DU?$char_traits@D@std@@V?$allocator@D@2@@4@PEAV54@1@Z
	?pbackfail@?$basic_stringbuf@DU?$char_traits@D@std@@V?$allocator@D@2@@std@@MEAAHH@Z
	?pop_back@CertInfo@cpr@@QEAAXXZ
	?pop_back@Cookies@cpr@@QEAAXXZ
	?pop_back@Files@cpr@@QEAAXXZ
	?prepareCommon@Session@cpr@@AEAAXXZ
	?prepareCommonDownload@Session@cpr@@AEAAXXZ
	?proceed@Interceptor@cpr@@KA?AVResponse@2@AEAVSession@2@@Z
	?proceed@Interceptor@cpr@@KA?AVResponse@2@AEAVSession@2@W4ProceedHttpMethod@12@@Z
	?proceed@Interceptor@cpr@@KA?AVResponse@2@AEAVSession@2@W4ProceedHttpMethod@12@AEAV?$basic_ofstream@DU?$char_traits@D@std@@@std@@@Z
	?proceed@Interceptor@cpr@@KA?AVResponse@2@AEAVSession@2@W4ProceedHttpMethod@12@AEBVWriteCallback@2@@Z
	?proceed@InterceptorMulti@cpr@@KA?AV?$vector@VResponse@cpr@@V?$allocator@VResponse@cpr@@@std@@@std@@AEAVMultiPerform@2@@Z
	?proceed@MultiPerform@cpr@@AEAA?AV?$vector@VResponse@cpr@@V?$allocator@VResponse@cpr@@@std@@@std@@XZ
	?proceed@Session@cpr@@AEAA?AVResponse@2@XZ
	?push_back@CertInfo@cpr@@QEAAXAEBV?$basic_string@DU?$char_traits@D@std@@V?$allocator@D@2@@std@@@Z
	?push_back@Cookies@cpr@@QEAAXAEBVCookie@2@@Z
	?push_back@Files@cpr@@QEAAXAEBUFile@2@@Z
	?readUserFunction@util@cpr@@YA_KPEAD_K1PEBVReadCallback@2@@Z
	?reserve@?$basic_string@DU?$char_traits@D@std@@V?$allocator@D@2@@std@@QEAAX_K@Z
	?secureStringClear@util@cpr@@YAXAEAV?$basic_string@DU?$char_traits@D@std@@V?$allocator@D@2@@std@@@Z
	?seekoff@?$basic_stringbuf@DU?$char_traits@D@std@@V?$allocator@D@2@@std@@MEAA?AV?$fpos@U_Mbstatet@@@2@_JHH@Z
	?seekpos@?$basic_stringbuf@DU?$char_traits@D@std@@V?$allocator@D@2@@std@@MEAA?AV?$fpos@U_Mbstatet@@@2@V32@H@Z
	?split@util@cpr@@YA?AV?$vector@V?$basic_string@DU?$char_traits@D@std@@V?$allocator@D@2@@std@@V?$allocator@V?$basic_string@DU?$char_traits@D@std@@V?$allocator@D@2@@std@@@2@@std@@AEBV?$basic_string@DU?$char_traits@D@std@@V?$allocator@D@2@@4@D@Z
	?str@?$basic_stringstream@DU?$char_traits@D@std@@V?$allocator@D@2@@std@@QEBA?AV?$basic_string@DU?$char_traits@D@std@@V?$allocator@D@2@@2@XZ
	?str@MultiRange@cpr@@QEBA?BV?$basic_string@DU?$char_traits@D@std@@V?$allocator@D@2@@std@@XZ
	?str@Range@cpr@@QEBA?BV?$basic_string@DU?$char_traits@D@std@@V?$allocator@D@2@@std@@XZ
	?to_string@std@@YA?AV?$basic_string@DU?$char_traits@D@std@@V?$allocator@D@2@@1@_J@Z
	?underflow@?$basic_stringbuf@DU?$char_traits@D@std@@V?$allocator@D@2@@std@@MEAAHXZ
	?urlDecode@CurlHolder@cpr@@QEBA?AV?$basic_string@DU?$char_traits@D@std@@V?$allocator@D@2@@std@@AEBV34@@Z
	?urlDecode@util@cpr@@YA?AV?$basic_string@DU?$char_traits@D@std@@V?$allocator@D@2@@std@@AEBV34@@Z
	?urlEncode@CurlHolder@cpr@@QEBA?AV?$basic_string@DU?$char_traits@D@std@@V?$allocator@D@2@@std@@AEBV34@@Z
	?urlEncode@util@cpr@@YA?AV?$basic_string@DU?$char_traits@D@std@@V?$allocator@D@2@@std@@AEBV34@@Z
	?what@bad_weak_ptr@std@@UEBAPEBDXZ
	?what@exception@std@@UEBAPEBDXZ
	?what@future_error@std@@UEBAPEBDXZ
	?writeFileFunction@util@cpr@@YA_KPEAD_K1PEAV?$basic_ofstream@DU?$char_traits@D@std@@@std@@@Z
	?writeFunction@util@cpr@@YA_KPEAD_K1PEAV?$basic_string@DU?$char_traits@D@std@@V?$allocator@D@2@@std@@@Z
	?writeUserFunction@util@cpr@@YA_KPEAD_K1PEBVWriteCallback@2@@Z
